In archive lib_gd32/libartnet.a:

artnetconst.o:     file format elf32-littlearm


artnetmsgconst.o:     file format elf32-littlearm


artnetnode.o:     file format elf32-littlearm


Disassembly of section .text.strncpy.isra.0:

00000000 <strncpy.isra.0>:
   0:	3901      	subs	r1, #1
   2:	b112      	cbz	r2, a <strncpy.isra.0+0xa>
   4:	f811 3f01 	ldrb.w	r3, [r1, #1]!
   8:	b913      	cbnz	r3, 10 <strncpy.isra.0+0x10>
   a:	4402      	add	r2, r0
   c:	2300      	movs	r3, #0
   e:	e005      	b.n	1c <strncpy.isra.0+0x1c>
  10:	f800 3b01 	strb.w	r3, [r0], #1
  14:	3a01      	subs	r2, #1
  16:	e7f4      	b.n	2 <strncpy.isra.0+0x2>
  18:	f800 3b01 	strb.w	r3, [r0], #1
  1c:	4290      	cmp	r0, r2
  1e:	d1fb      	bne.n	18 <strncpy.isra.0+0x18>
  20:	4770      	bx	lr

Disassembly of section .text._ZN10ArtNetNodeD2Ev:

00000000 <ArtNetNode::~ArtNetNode()>:
   0:	b510      	push	{r4, lr}
   2:	4604      	mov	r4, r0
   4:	f7ff fffe 	bl	0 <E131Bridge::~E131Bridge()>
   8:	4620      	mov	r0, r4
   a:	bd10      	pop	{r4, pc}

Disassembly of section .text._ZN10ArtNetNode5StartEv:

00000000 <ArtNetNode::Start()>:
   0:	b538      	push	{r3, r4, r5, lr}
   2:	f500 5480 	add.w	r4, r0, #4096	@ 0x1000
   6:	4605      	mov	r5, r0
   8:	f894 376b 	ldrb.w	r3, [r4, #1899]	@ 0x76b
   c:	f063 031f 	orn	r3, r3, #31
  10:	f884 376b 	strb.w	r3, [r4, #1899]	@ 0x76b
  14:	4b15      	ldr	r3, [pc, #84]	@ (6c <ArtNetNode::Start()+0x6c>)
  16:	7e9a      	ldrb	r2, [r3, #26]
  18:	f894 3828 	ldrb.w	r3, [r4, #2088]	@ 0x828
  1c:	f002 0202 	and.w	r2, r2, #2
  20:	f003 03e9 	and.w	r3, r3, #233	@ 0xe9
  24:	4313      	orrs	r3, r2
  26:	4a12      	ldr	r2, [pc, #72]	@ (70 <ArtNetNode::Start()+0x70>)
  28:	f043 0318 	orr.w	r3, r3, #24
  2c:	6812      	ldr	r2, [r2, #0]
  2e:	f884 3828 	strb.w	r3, [r4, #2088]	@ 0x828
  32:	7912      	ldrb	r2, [r2, #4]
  34:	ea43 0382 	orr.w	r3, r3, r2, lsl #2
  38:	f043 0301 	orr.w	r3, r3, #1
  3c:	f884 3828 	strb.w	r3, [r4, #2088]	@ 0x828
  40:	2321      	movs	r3, #33	@ 0x21
  42:	f884 382d 	strb.w	r3, [r4, #2093]	@ 0x82d
  46:	f641 1036 	movw	r0, #6454	@ 0x1936
  4a:	f7ff fffe 	bl	0 <net::udp_begin(unsigned short)>
  4e:	f8c5 0bc4 	str.w	r0, [r5, #3012]	@ 0xbc4
  52:	4628      	mov	r0, r5
  54:	f7ff fffe 	bl	0 <E131Bridge::Start()>
  58:	4b06      	ldr	r3, [pc, #24]	@ (74 <ArtNetNode::Start()+0x74>)
  5a:	2102      	movs	r1, #2
  5c:	6818      	ldr	r0, [r3, #0]
  5e:	f884 1139 	strb.w	r1, [r4, #313]	@ 0x139
  62:	e8bd 4038 	ldmia.w	sp!, {r3, r4, r5, lr}
  66:	f7ff bffe 	b.w	0 <Hardware::SetMode(hardware::ledblink::Mode)>
  6a:	bf00      	nop
	...

Disassembly of section .text._ZN10ArtNetNode4StopEv:

00000000 <ArtNetNode::Stop()>:
   0:	e92d 41f0 	stmdb	sp!, {r4, r5, r6, r7, r8, lr}
   4:	4604      	mov	r4, r0
   6:	f7ff fffe 	bl	0 <E131Bridge::Stop()>
   a:	f504 578b 	add.w	r7, r4, #4448	@ 0x1160
   e:	4e18      	ldr	r6, [pc, #96]	@ (70 <ArtNetNode::Stop()+0x70>)
  10:	2500      	movs	r5, #0
  12:	f604 38f4 	addw	r8, r4, #3060	@ 0xbf4
  16:	3713      	adds	r7, #19
  18:	2328      	movs	r3, #40	@ 0x28
  1a:	436b      	muls	r3, r5
  1c:	f858 3003 	ldr.w	r3, [r8, r3]
  20:	b963      	cbnz	r3, 3c <ArtNetNode::Stop()+0x3c>
  22:	f8d4 0bdc 	ldr.w	r0, [r4, #3036]	@ 0xbdc
  26:	b118      	cbz	r0, 30 <ArtNetNode::Stop()+0x30>
  28:	6803      	ldr	r3, [r0, #0]
  2a:	4629      	mov	r1, r5
  2c:	68db      	ldr	r3, [r3, #12]
  2e:	4798      	blx	r3
  30:	2324      	movs	r3, #36	@ 0x24
  32:	436b      	muls	r3, r5
  34:	2200      	movs	r2, #0
  36:	f8c6 2600 	str.w	r2, [r6, #1536]	@ 0x600
  3a:	54fa      	strb	r2, [r7, r3]
  3c:	3501      	adds	r5, #1
  3e:	2d20      	cmp	r5, #32
  40:	f206 6604 	addw	r6, r6, #1540	@ 0x604
  44:	d1e8      	bne.n	18 <ArtNetNode::Stop()+0x18>
  46:	4b0b      	ldr	r3, [pc, #44]	@ (74 <ArtNetNode::Stop()+0x74>)
  48:	f504 5480 	add.w	r4, r4, #4096	@ 0x1000
  4c:	6818      	ldr	r0, [r3, #0]
  4e:	2100      	movs	r1, #0
  50:	f7ff fffe 	bl	0 <Hardware::SetMode(hardware::ledblink::Mode)>
  54:	f894 376b 	ldrb.w	r3, [r4, #1899]	@ 0x76b
  58:	f003 033f 	and.w	r3, r3, #63	@ 0x3f
  5c:	f063 037f 	orn	r3, r3, #127	@ 0x7f
  60:	f884 376b 	strb.w	r3, [r4, #1899]	@ 0x76b
  64:	2301      	movs	r3, #1
  66:	f884 3139 	strb.w	r3, [r4, #313]	@ 0x139
  6a:	e8bd 81f0 	ldmia.w	sp!, {r4, r5, r6, r7, r8, pc}
  6e:	bf00      	nop
	...

Disassembly of section .text._ZN10ArtNetNode12SetShortNameEmPKc:

00000000 <ArtNetNode::SetShortName(unsigned long, char const*)>:
   0:	b57f      	push	{r0, r1, r2, r3, r4, r5, r6, lr}
   2:	2528      	movs	r5, #40	@ 0x28
   4:	fb05 0501 	mla	r5, r5, r1, r0
   8:	460c      	mov	r4, r1
   a:	4606      	mov	r6, r0
   c:	f605 35fc 	addw	r5, r5, #3068	@ 0xbfc
  10:	4611      	mov	r1, r2
  12:	bb4a      	cbnz	r2, 68 <ArtNetNode::SetShortName(unsigned long, char const*)+0x68>
  14:	4a17      	ldr	r2, [pc, #92]	@ (74 <ArtNetNode::SetShortName(unsigned long, char const*)+0x74>)
  16:	1c63      	adds	r3, r4, #1
  18:	2111      	movs	r1, #17
  1a:	4628      	mov	r0, r5
  1c:	f7ff fffe 	bl	0 <snprintf>
  20:	2328      	movs	r3, #40	@ 0x28
  22:	fb03 6304 	mla	r3, r3, r4, r6
  26:	2000      	movs	r0, #0
  28:	f506 5680 	add.w	r6, r6, #4096	@ 0x1000
  2c:	f883 0c0d 	strb.w	r0, [r3, #3085]	@ 0xc0d
  30:	f896 3139 	ldrb.w	r3, [r6, #313]	@ 0x139
  34:	2b02      	cmp	r3, #2
  36:	d115      	bne.n	64 <ArtNetNode::SetShortName(unsigned long, char const*)+0x64>
  38:	4b0f      	ldr	r3, [pc, #60]	@ (78 <ArtNetNode::SetShortName(unsigned long, char const*)+0x78>)
  3a:	681b      	ldr	r3, [r3, #0]
  3c:	429c      	cmp	r4, r3
  3e:	d311      	bcc.n	64 <ArtNetNode::SetShortName(unsigned long, char const*)+0x64>
  40:	1ae4      	subs	r4, r4, r3
  42:	2c03      	cmp	r4, #3
  44:	d80e      	bhi.n	64 <ArtNetNode::SetShortName(unsigned long, char const*)+0x64>
  46:	2380      	movs	r3, #128	@ 0x80
  48:	2112      	movs	r1, #18
  4a:	40a3      	lsls	r3, r4
  4c:	e9cd 1300 	strd	r1, r3, [sp]
  50:	9002      	str	r0, [sp, #8]
  52:	480a      	ldr	r0, [pc, #40]	@ (7c <ArtNetNode::SetShortName(unsigned long, char const*)+0x7c>)
  54:	fb01 f204 	mul.w	r2, r1, r4
  58:	6800      	ldr	r0, [r0, #0]
  5a:	462b      	mov	r3, r5
  5c:	3253      	adds	r2, #83	@ 0x53
  5e:	2119      	movs	r1, #25
  60:	f7ff fffe 	bl	0 <ConfigStore::Update(configstore::Store, unsigned long, void const*, unsigned long, unsigned long, unsigned long)>
  64:	b004      	add	sp, #16
  66:	bd70      	pop	{r4, r5, r6, pc}
  68:	2211      	movs	r2, #17
  6a:	4628      	mov	r0, r5
  6c:	f7ff fffe 	bl	0 <ArtNetNode::SetShortName(unsigned long, char const*)>
  70:	e7d6      	b.n	20 <ArtNetNode::SetShortName(unsigned long, char const*)+0x20>
  72:	bf00      	nop
	...

Disassembly of section .text._ZN10ArtNetNode18GetLongNameDefaultEPc:

00000000 <ArtNetNode::GetLongNameDefault(char*)>:
   0:	b51f      	push	{r0, r1, r2, r3, r4, lr}
   2:	4b07      	ldr	r3, [pc, #28]	@ (20 <ArtNetNode::GetLongNameDefault(char*)+0x20>)
   4:	9302      	str	r3, [sp, #8]
   6:	2304      	movs	r3, #4
   8:	9301      	str	r3, [sp, #4]
   a:	4b06      	ldr	r3, [pc, #24]	@ (24 <ArtNetNode::GetLongNameDefault(char*)+0x24>)
   c:	9300      	str	r3, [sp, #0]
   e:	4a06      	ldr	r2, [pc, #24]	@ (28 <ArtNetNode::GetLongNameDefault(char*)+0x28>)
  10:	4b06      	ldr	r3, [pc, #24]	@ (2c <ArtNetNode::GetLongNameDefault(char*)+0x2c>)
  12:	4608      	mov	r0, r1
  14:	213f      	movs	r1, #63	@ 0x3f
  16:	f7ff fffe 	bl	0 <snprintf>
  1a:	b005      	add	sp, #20
  1c:	f85d fb04 	ldr.w	pc, [sp], #4
  20:	0000001b 	.word	0x0000001b
  24:	00000000 	.word	0x00000000
  28:	0000000f 	.word	0x0000000f
  2c:	00000000 	.word	0x00000000

Disassembly of section .text._ZN10ArtNetNode11SetLongNameEPKc:

00000000 <ArtNetNode::SetLongName(char const*)>:
   0:	b530      	push	{r4, r5, lr}
   2:	4604      	mov	r4, r0
   4:	b085      	sub	sp, #20
   6:	f500 55bc 	add.w	r5, r0, #6016	@ 0x1780
   a:	b9e1      	cbnz	r1, 46 <ArtNetNode::SetLongName(char const*)+0x46>
   c:	4629      	mov	r1, r5
   e:	f7ff fffe 	bl	0 <ArtNetNode::SetLongName(char const*)>
  12:	f504 5480 	add.w	r4, r4, #4096	@ 0x1000
  16:	2300      	movs	r3, #0
  18:	f894 2139 	ldrb.w	r2, [r4, #313]	@ 0x139
  1c:	f884 37bf 	strb.w	r3, [r4, #1983]	@ 0x7bf
  20:	2a02      	cmp	r2, #2
  22:	d115      	bne.n	50 <ArtNetNode::SetLongName(char const*)+0x50>
  24:	9302      	str	r3, [sp, #8]
  26:	2340      	movs	r3, #64	@ 0x40
  28:	e9cd 3300 	strd	r3, r3, [sp]
  2c:	4809      	ldr	r0, [pc, #36]	@ (54 <ArtNetNode::SetLongName(char const*)+0x54>)
  2e:	462b      	mov	r3, r5
  30:	6800      	ldr	r0, [r0, #0]
  32:	2213      	movs	r2, #19
  34:	2119      	movs	r1, #25
  36:	f7ff fffe 	bl	0 <ConfigStore::Update(configstore::Store, unsigned long, void const*, unsigned long, unsigned long, unsigned long)>
  3a:	4628      	mov	r0, r5
  3c:	b005      	add	sp, #20
  3e:	e8bd 4030 	ldmia.w	sp!, {r4, r5, lr}
  42:	f7ff bffe 	b.w	0 <artnet::display_longname(char const*)>
  46:	223f      	movs	r2, #63	@ 0x3f
  48:	4628      	mov	r0, r5
  4a:	f7ff fffe 	bl	0 <ArtNetNode::SetLongName(char const*)>
  4e:	e7e0      	b.n	12 <ArtNetNode::SetLongName(char const*)+0x12>
  50:	b005      	add	sp, #20
  52:	bd30      	pop	{r4, r5, pc}
  54:	00000000 	.word	0x00000000

Disassembly of section .text._ZN10ArtNetNodeC2Ev:

00000000 <ArtNetNode::ArtNetNode()>:
   0:	b5f8      	push	{r3, r4, r5, r6, r7, lr}
   2:	4604      	mov	r4, r0
   4:	f7ff fffe 	bl	0 <E131Bridge::E131Bridge()>
   8:	4a5f      	ldr	r2, [pc, #380]	@ (188 <ArtNetNode::ArtNetNode()+0x188>)
   a:	f04f 33ff 	mov.w	r3, #4294967295	@ 0xffffffff
   e:	6014      	str	r4, [r2, #0]
  10:	f504 52ba 	add.w	r2, r4, #5952	@ 0x1740
  14:	f8c4 3bc4 	str.w	r3, [r4, #3012]	@ 0xbc4
  18:	3214      	adds	r2, #20
  1a:	2300      	movs	r3, #0
  1c:	f504 51c2 	add.w	r1, r4, #6208	@ 0x1840
  20:	f8c4 3bc8 	str.w	r3, [r4, #3016]	@ 0xbc8
  24:	f8c4 3bd0 	str.w	r3, [r4, #3024]	@ 0xbd0
  28:	f8c4 3bd4 	str.w	r3, [r4, #3028]	@ 0xbd4
  2c:	f8c4 3bd8 	str.w	r3, [r4, #3032]	@ 0xbd8
  30:	f8c4 3bdc 	str.w	r3, [r4, #3036]	@ 0xbdc
  34:	f8c4 3be0 	str.w	r3, [r4, #3040]	@ 0xbe0
  38:	f8c4 3be4 	str.w	r3, [r4, #3044]	@ 0xbe4
  3c:	3103      	adds	r1, #3
  3e:	4610      	mov	r0, r2
  40:	f800 3b01 	strb.w	r3, [r0], #1
  44:	4288      	cmp	r0, r1
  46:	d1fb      	bne.n	40 <ArtNetNode::ArtNetNode()+0x40>
  48:	f504 53ba 	add.w	r3, r4, #5952	@ 0x1740
  4c:	494f      	ldr	r1, [pc, #316]	@ (18c <ArtNetNode::ArtNetNode()+0x18c>)
  4e:	331c      	adds	r3, #28
  50:	f811 0b01 	ldrb.w	r0, [r1], #1
  54:	f802 0b01 	strb.w	r0, [r2], #1
  58:	429a      	cmp	r2, r3
  5a:	d1f9      	bne.n	50 <ArtNetNode::ArtNetNode()+0x50>
  5c:	f504 5580 	add.w	r5, r4, #4096	@ 0x1000
  60:	f44f 5304 	mov.w	r3, #8448	@ 0x2100
  64:	f8a5 375c 	strh.w	r3, [r5, #1884]	@ 0x75c
  68:	f641 1336 	movw	r3, #6454	@ 0x1936
  6c:	f8a5 3762 	strh.w	r3, [r5, #1890]	@ 0x762
  70:	4b47      	ldr	r3, [pc, #284]	@ (190 <ArtNetNode::ArtNetNode()+0x190>)
  72:	4948      	ldr	r1, [pc, #288]	@ (194 <ArtNetNode::ArtNetNode()+0x194>)
  74:	781a      	ldrb	r2, [r3, #0]
  76:	f885 2764 	strb.w	r2, [r5, #1892]	@ 0x764
  7a:	785b      	ldrb	r3, [r3, #1]
  7c:	f885 3765 	strb.w	r3, [r5, #1893]	@ 0x765
  80:	4b45      	ldr	r3, [pc, #276]	@ (198 <ArtNetNode::ArtNetNode()+0x198>)
  82:	781a      	ldrb	r2, [r3, #0]
  84:	f885 2768 	strb.w	r2, [r5, #1896]	@ 0x768
  88:	785b      	ldrb	r3, [r3, #1]
  8a:	f885 3769 	strb.w	r3, [r5, #1897]	@ 0x769
  8e:	4b43      	ldr	r3, [pc, #268]	@ (19c <ArtNetNode::ArtNetNode()+0x19c>)
  90:	785a      	ldrb	r2, [r3, #1]
  92:	781b      	ldrb	r3, [r3, #0]
  94:	f885 276c 	strb.w	r2, [r5, #1900]	@ 0x76c
  98:	f885 376d 	strb.w	r3, [r5, #1901]	@ 0x76d
  9c:	f504 52c1 	add.w	r2, r4, #6176	@ 0x1820
  a0:	f504 53c0 	add.w	r3, r4, #6144	@ 0x1800
  a4:	331d      	adds	r3, #29
  a6:	3203      	adds	r2, #3
  a8:	f811 0b01 	ldrb.w	r0, [r1], #1
  ac:	f803 0b01 	strb.w	r0, [r3], #1
  b0:	4293      	cmp	r3, r2
  b2:	d1f9      	bne.n	a8 <ArtNetNode::ArtNetNode()+0xa8>
  b4:	f504 5787 	add.w	r7, r4, #4320	@ 0x10e0
  b8:	2364      	movs	r3, #100	@ 0x64
  ba:	3710      	adds	r7, #16
  bc:	f504 568a 	add.w	r6, r4, #4416	@ 0x1140
  c0:	f885 3816 	strb.w	r3, [r5, #2070]	@ 0x816
  c4:	3614      	adds	r6, #20
  c6:	463b      	mov	r3, r7
  c8:	2200      	movs	r2, #0
  ca:	f803 2b01 	strb.w	r2, [r3], #1
  ce:	42b3      	cmp	r3, r6
  d0:	d1fb      	bne.n	ca <ArtNetNode::ArtNetNode()+0xca>
  d2:	f240 1301 	movw	r3, #257	@ 0x101
  d6:	f8a5 3138 	strh.w	r3, [r5, #312]	@ 0x138
  da:	f8b5 3821 	ldrh.w	r3, [r5, #2081]	@ 0x821
  de:	ba5b      	rev16	r3, r3
  e0:	f44f 727a 	mov.w	r2, #1000	@ 0x3e8
  e4:	b29b      	uxth	r3, r3
  e6:	fbb3 f1f2 	udiv	r1, r3, r2
  ea:	fb02 3311 	mls	r3, r2, r1, r3
  ee:	f8c5 30fc 	str.w	r3, [r5, #252]	@ 0xfc
  f2:	2100      	movs	r1, #0
  f4:	4620      	mov	r0, r4
  f6:	f7ff fffe 	bl	0 <ArtNetNode::ArtNetNode()>
  fa:	f604 33e8 	addw	r3, r4, #3048	@ 0xbe8
  fe:	461a      	mov	r2, r3
 100:	2100      	movs	r1, #0
 102:	f802 1b01 	strb.w	r1, [r2], #1
 106:	4297      	cmp	r7, r2
 108:	d1fb      	bne.n	102 <ArtNetNode::ArtNetNode()+0x102>
 10a:	4f25      	ldr	r7, [pc, #148]	@ (1a0 <ArtNetNode::ArtNetNode()+0x1a0>)
 10c:	68fa      	ldr	r2, [r7, #12]
 10e:	f8c5 20e8 	str.w	r2, [r5, #232]	@ 0xe8
 112:	f504 5287 	add.w	r2, r4, #4320	@ 0x10e0
 116:	3208      	adds	r2, #8
 118:	2102      	movs	r1, #2
 11a:	4293      	cmp	r3, r2
 11c:	d12e      	bne.n	17c <ArtNetNode::ArtNetNode()+0x17c>
 11e:	2500      	movs	r5, #0
 120:	4629      	mov	r1, r5
 122:	2200      	movs	r2, #0
 124:	4620      	mov	r0, r4
 126:	3501      	adds	r5, #1
 128:	f7ff fffe 	bl	0 <ArtNetNode::ArtNetNode()>
 12c:	2d20      	cmp	r5, #32
 12e:	d1f7      	bne.n	120 <ArtNetNode::ArtNetNode()+0x120>
 130:	f504 52ae 	add.w	r2, r4, #5568	@ 0x15c0
 134:	f8d7 c00c 	ldr.w	ip, [r7, #12]
 138:	4633      	mov	r3, r6
 13a:	f504 50af 	add.w	r0, r4, #5600	@ 0x15e0
 13e:	3214      	adds	r2, #20
 140:	2600      	movs	r6, #0
 142:	f44f 7780 	mov.w	r7, #256	@ 0x100
 146:	f04f 0ea0 	mov.w	lr, #160	@ 0xa0
 14a:	461d      	mov	r5, r3
 14c:	f103 0124 	add.w	r1, r3, #36	@ 0x24
 150:	f805 6b01 	strb.w	r6, [r5], #1
 154:	428d      	cmp	r5, r1
 156:	d1fb      	bne.n	150 <ArtNetNode::ArtNetNode()+0x150>
 158:	811f      	strh	r7, [r3, #8]
 15a:	829f      	strh	r7, [r3, #20]
 15c:	f883 e01d 	strb.w	lr, [r3, #29]
 160:	f1a0 030c 	sub.w	r3, r0, #12
 164:	f803 6b01 	strb.w	r6, [r3], #1
 168:	4283      	cmp	r3, r0
 16a:	d1fb      	bne.n	164 <ArtNetNode::ArtNetNode()+0x164>
 16c:	4291      	cmp	r1, r2
 16e:	f843 cc0c 	str.w	ip, [r3, #-12]
 172:	f103 000c 	add.w	r0, r3, #12
 176:	d104      	bne.n	182 <ArtNetNode::ArtNetNode()+0x182>
 178:	4620      	mov	r0, r4
 17a:	bdf8      	pop	{r3, r4, r5, r6, r7, pc}
 17c:	6099      	str	r1, [r3, #8]
 17e:	3328      	adds	r3, #40	@ 0x28
 180:	e7cb      	b.n	11a <ArtNetNode::ArtNetNode()+0x11a>
 182:	460b      	mov	r3, r1
 184:	e7e1      	b.n	14a <ArtNetNode::ArtNetNode()+0x14a>
 186:	bf00      	nop
	...
 194:	00000014 	.word	0x00000014
	...

Disassembly of section .text._ZN10ArtNetNode27SetNetworkDataLossConditionEv:

00000000 <ArtNetNode::SetNetworkDataLossCondition()>:
   0:	b570      	push	{r4, r5, r6, lr}
   2:	f500 5280 	add.w	r2, r0, #4096	@ 0x1000
   6:	f500 548a 	add.w	r4, r0, #4416	@ 0x1140
   a:	2300      	movs	r3, #0
   c:	3418      	adds	r4, #24
   e:	f500 55ae 	add.w	r5, r0, #5568	@ 0x15c0
  12:	f882 313e 	strb.w	r3, [r2, #318]	@ 0x13e
  16:	f882 313d 	strb.w	r3, [r2, #317]	@ 0x13d
  1a:	3518      	adds	r5, #24
  1c:	4623      	mov	r3, r4
  1e:	6819      	ldr	r1, [r3, #0]
  20:	68de      	ldr	r6, [r3, #12]
  22:	42f1      	cmn	r1, r6
  24:	d103      	bne.n	2e <ArtNetNode::SetNetworkDataLossCondition()+0x2e>
  26:	3324      	adds	r3, #36	@ 0x24
  28:	42ab      	cmp	r3, r5
  2a:	d1f8      	bne.n	1e <ArtNetNode::SetNetworkDataLossCondition()+0x1e>
  2c:	bd70      	pop	{r4, r5, r6, pc}
  2e:	f892 382d 	ldrb.w	r3, [r2, #2093]	@ 0x82d
  32:	f003 03c0 	and.w	r3, r3, #192	@ 0xc0
  36:	2b40      	cmp	r3, #64	@ 0x40
  38:	d00e      	beq.n	58 <ArtNetNode::SetNetworkDataLossCondition()+0x58>
  3a:	d901      	bls.n	40 <ArtNetNode::SetNetworkDataLossCondition()+0x40>
  3c:	2b80      	cmp	r3, #128	@ 0x80
  3e:	d012      	beq.n	66 <ArtNetNode::SetNetworkDataLossCondition()+0x66>
  40:	4b0c      	ldr	r3, [pc, #48]	@ (74 <ArtNetNode::SetNetworkDataLossCondition()+0x74>)
  42:	2200      	movs	r2, #0
  44:	6022      	str	r2, [r4, #0]
  46:	60e2      	str	r2, [r4, #12]
  48:	3424      	adds	r4, #36	@ 0x24
  4a:	42ac      	cmp	r4, r5
  4c:	f8c3 2600 	str.w	r2, [r3, #1536]	@ 0x600
  50:	f203 6304 	addw	r3, r3, #1540	@ 0x604
  54:	d1f6      	bne.n	44 <ArtNetNode::SetNetworkDataLossCondition()+0x44>
  56:	e7e9      	b.n	2c <ArtNetNode::SetNetworkDataLossCondition()+0x2c>
  58:	f8d0 0bdc 	ldr.w	r0, [r0, #3036]	@ 0xbdc
  5c:	6803      	ldr	r3, [r0, #0]
  5e:	2101      	movs	r1, #1
  60:	6a1b      	ldr	r3, [r3, #32]
  62:	4798      	blx	r3
  64:	e7ec      	b.n	40 <ArtNetNode::SetNetworkDataLossCondition()+0x40>
  66:	f8d0 0bdc 	ldr.w	r0, [r0, #3036]	@ 0xbdc
  6a:	6803      	ldr	r3, [r0, #0]
  6c:	6a5b      	ldr	r3, [r3, #36]	@ 0x24
  6e:	4798      	blx	r3
  70:	e7e6      	b.n	40 <ArtNetNode::SetNetworkDataLossCondition()+0x40>
  72:	bf00      	nop
  74:	00000000 	.word	0x00000000

Disassembly of section .text._ZN10ArtNetNode7ProcessEm:

00000000 <ArtNetNode::Process(unsigned long)>:
   0:	b5f8      	push	{r3, r4, r5, r6, r7, lr}
   2:	f8d0 3bd0 	ldr.w	r3, [r0, #3024]	@ 0xbd0
   6:	4604      	mov	r4, r0
   8:	f500 5580 	add.w	r5, r0, #4096	@ 0x1000
   c:	2900      	cmp	r1, #0
   e:	d144      	bne.n	9a <ArtNetNode::Process(unsigned long)+0x9a>
  10:	f8d0 2bd4 	ldr.w	r2, [r0, #3028]	@ 0xbd4
  14:	1a9b      	subs	r3, r3, r2
  16:	f242 720f 	movw	r2, #9999	@ 0x270f
  1a:	4293      	cmp	r3, r2
  1c:	d908      	bls.n	30 <ArtNetNode::Process(unsigned long)+0x30>
  1e:	f7ff fffe 	bl	0 <ArtNetNode::Process(unsigned long)>
  22:	f895 3142 	ldrb.w	r3, [r5, #322]	@ 0x142
  26:	f023 0302 	bic.w	r3, r3, #2
  2a:	f885 3142 	strb.w	r3, [r5, #322]	@ 0x142
  2e:	e002      	b.n	36 <ArtNetNode::Process(unsigned long)+0x36>
  30:	f5b3 7f7a 	cmp.w	r3, #1000	@ 0x3e8
  34:	d2f5      	bcs.n	22 <ArtNetNode::Process(unsigned long)+0x22>
  36:	f895 376b 	ldrb.w	r3, [r5, #1899]	@ 0x76b
  3a:	f003 03c0 	and.w	r3, r3, #192	@ 0xc0
  3e:	2bc0      	cmp	r3, #192	@ 0xc0
  40:	d10b      	bne.n	5a <ArtNetNode::Process(unsigned long)+0x5a>
  42:	4b66      	ldr	r3, [pc, #408]	@ (1dc <ArtNetNode::Process(unsigned long)+0x1dc>)
  44:	681b      	ldr	r3, [r3, #0]
  46:	695b      	ldr	r3, [r3, #20]
  48:	2b04      	cmp	r3, #4
  4a:	d006      	beq.n	5a <ArtNetNode::Process(unsigned long)+0x5a>
  4c:	f895 3142 	ldrb.w	r3, [r5, #322]	@ 0x142
  50:	b163      	cbz	r3, 6c <ArtNetNode::Process(unsigned long)+0x6c>
  52:	2103      	movs	r1, #3
  54:	4620      	mov	r0, r4
  56:	f7ff fffe 	bl	0 <ArtNetNode::SetLedBlinkMode4(hardware::ledblink::Mode)>
  5a:	f504 5688 	add.w	r6, r4, #4352	@ 0x1100
  5e:	f504 578a 	add.w	r7, r4, #4416	@ 0x1140
  62:	3614      	adds	r6, #20
  64:	3704      	adds	r7, #4
  66:	42b7      	cmp	r7, r6
  68:	d102      	bne.n	70 <ArtNetNode::Process(unsigned long)+0x70>
  6a:	bdf8      	pop	{r3, r4, r5, r6, r7, pc}
  6c:	2102      	movs	r1, #2
  6e:	e7f1      	b.n	54 <ArtNetNode::Process(unsigned long)+0x54>
  70:	f856 2c0c 	ldr.w	r2, [r6, #-12]
  74:	b17a      	cbz	r2, 96 <ArtNetNode::Process(unsigned long)+0x96>
  76:	f8d4 3bd0 	ldr.w	r3, [r4, #3024]	@ 0xbd0
  7a:	1a9b      	subs	r3, r3, r2
  7c:	f8d5 20fc 	ldr.w	r2, [r5, #252]	@ 0xfc
  80:	4293      	cmp	r3, r2
  82:	d908      	bls.n	96 <ArtNetNode::Process(unsigned long)+0x96>
  84:	4633      	mov	r3, r6
  86:	2100      	movs	r1, #0
  88:	f843 1d0c 	str.w	r1, [r3, #-12]!
  8c:	4620      	mov	r0, r4
  8e:	f856 2c08 	ldr.w	r2, [r6, #-8]
  92:	f7ff fffe 	bl	0 <ArtNetNode::SendPollRelply(unsigned long, unsigned long, artnet::ArtPollQueue*)>
  96:	360c      	adds	r6, #12
  98:	e7e5      	b.n	66 <ArtNetNode::Process(unsigned long)+0x66>
  9a:	f895 213d 	ldrb.w	r2, [r5, #317]	@ 0x13d
  9e:	f8c0 3bd4 	str.w	r3, [r0, #3028]	@ 0xbd4
  a2:	b142      	cbz	r2, b6 <ArtNetNode::Process(unsigned long)+0xb6>
  a4:	f8d5 2104 	ldr.w	r2, [r5, #260]	@ 0x104
  a8:	1a9b      	subs	r3, r3, r2
  aa:	f5b3 6f7a 	cmp.w	r3, #4000	@ 0xfa0
  ae:	bf24      	itt	cs
  b0:	2300      	movcs	r3, #0
  b2:	f885 313d 	strbcs.w	r3, [r5, #317]	@ 0x13d
  b6:	290b      	cmp	r1, #11
  b8:	d91f      	bls.n	fa <ArtNetNode::Process(unsigned long)+0xfa>
  ba:	f8d4 3bc8 	ldr.w	r3, [r4, #3016]	@ 0xbc8
  be:	7a9a      	ldrb	r2, [r3, #10]
  c0:	b9da      	cbnz	r2, fa <ArtNetNode::Process(unsigned long)+0xfa>
  c2:	7ada      	ldrb	r2, [r3, #11]
  c4:	2a0e      	cmp	r2, #14
  c6:	d118      	bne.n	fa <ArtNetNode::Process(unsigned long)+0xfa>
  c8:	4945      	ldr	r1, [pc, #276]	@ (1e0 <ArtNetNode::Process(unsigned long)+0x1e0>)
  ca:	1e5a      	subs	r2, r3, #1
  cc:	1dd8      	adds	r0, r3, #7
  ce:	f812 7f01 	ldrb.w	r7, [r2, #1]!
  d2:	f811 6b01 	ldrb.w	r6, [r1], #1
  d6:	42b7      	cmp	r7, r6
  d8:	d10f      	bne.n	fa <ArtNetNode::Process(unsigned long)+0xfa>
  da:	4282      	cmp	r2, r0
  dc:	d1f7      	bne.n	ce <ArtNetNode::Process(unsigned long)+0xce>
  de:	891b      	ldrh	r3, [r3, #8]
  e0:	f5b3 4fc0 	cmp.w	r3, #24576	@ 0x6000
  e4:	d068      	beq.n	1b8 <ArtNetNode::Process(unsigned long)+0x1b8>
  e6:	d838      	bhi.n	15a <ArtNetNode::Process(unsigned long)+0x15a>
  e8:	f5b3 4fa0 	cmp.w	r3, #20480	@ 0x5000
  ec:	d042      	beq.n	174 <ArtNetNode::Process(unsigned long)+0x174>
  ee:	f5b3 4fa4 	cmp.w	r3, #20992	@ 0x5200
  f2:	d04b      	beq.n	18c <ArtNetNode::Process(unsigned long)+0x18c>
  f4:	f5b3 5f00 	cmp.w	r3, #8192	@ 0x2000
  f8:	d06a      	beq.n	1d0 <ArtNetNode::Process(unsigned long)+0x1d0>
  fa:	f895 376b 	ldrb.w	r3, [r5, #1899]	@ 0x76b
  fe:	f003 03c0 	and.w	r3, r3, #192	@ 0xc0
 102:	2bc0      	cmp	r3, #192	@ 0xc0
 104:	d10c      	bne.n	120 <ArtNetNode::Process(unsigned long)+0x120>
 106:	4b35      	ldr	r3, [pc, #212]	@ (1dc <ArtNetNode::Process(unsigned long)+0x1dc>)
 108:	681b      	ldr	r3, [r3, #0]
 10a:	695b      	ldr	r3, [r3, #20]
 10c:	2b04      	cmp	r3, #4
 10e:	d007      	beq.n	120 <ArtNetNode::Process(unsigned long)+0x120>
 110:	f895 3142 	ldrb.w	r3, [r5, #322]	@ 0x142
 114:	2b00      	cmp	r3, #0
 116:	d05f      	beq.n	1d8 <ArtNetNode::Process(unsigned long)+0x1d8>
 118:	2103      	movs	r1, #3
 11a:	4620      	mov	r0, r4
 11c:	f7ff fffe 	bl	0 <ArtNetNode::SetLedBlinkMode4(hardware::ledblink::Mode)>
 120:	f504 5688 	add.w	r6, r4, #4352	@ 0x1100
 124:	f504 578a 	add.w	r7, r4, #4416	@ 0x1140
 128:	3614      	adds	r6, #20
 12a:	3704      	adds	r7, #4
 12c:	42b7      	cmp	r7, r6
 12e:	d09c      	beq.n	6a <ArtNetNode::Process(unsigned long)+0x6a>
 130:	f856 2c0c 	ldr.w	r2, [r6, #-12]
 134:	b17a      	cbz	r2, 156 <ArtNetNode::Process(unsigned long)+0x156>
 136:	f8d4 3bd0 	ldr.w	r3, [r4, #3024]	@ 0xbd0
 13a:	1a9b      	subs	r3, r3, r2
 13c:	f8d5 20fc 	ldr.w	r2, [r5, #252]	@ 0xfc
 140:	4293      	cmp	r3, r2
 142:	d908      	bls.n	156 <ArtNetNode::Process(unsigned long)+0x156>
 144:	4633      	mov	r3, r6
 146:	2100      	movs	r1, #0
 148:	f843 1d0c 	str.w	r1, [r3, #-12]!
 14c:	4620      	mov	r0, r4
 14e:	f856 2c08 	ldr.w	r2, [r6, #-8]
 152:	f7ff fffe 	bl	0 <ArtNetNode::SendPollRelply(unsigned long, unsigned long, artnet::ArtPollQueue*)>
 156:	360c      	adds	r6, #12
 158:	e7e8      	b.n	12c <ArtNetNode::Process(unsigned long)+0x12c>
 15a:	f5b3 4f19 	cmp.w	r3, #39168	@ 0x9900
 15e:	d033      	beq.n	1c8 <ArtNetNode::Process(unsigned long)+0x1c8>
 160:	f5b3 4f78 	cmp.w	r3, #63488	@ 0xf800
 164:	d02c      	beq.n	1c0 <ArtNetNode::Process(unsigned long)+0x1c0>
 166:	f5b3 4f18 	cmp.w	r3, #38912	@ 0x9800
 16a:	d1c6      	bne.n	fa <ArtNetNode::Process(unsigned long)+0xfa>
 16c:	4620      	mov	r0, r4
 16e:	f7ff fffe 	bl	0 <ArtNetNode::HandleTimeSync()>
 172:	e7c2      	b.n	fa <ArtNetNode::Process(unsigned long)+0xfa>
 174:	f8d4 3bdc 	ldr.w	r3, [r4, #3036]	@ 0xbdc
 178:	2b00      	cmp	r3, #0
 17a:	d0be      	beq.n	fa <ArtNetNode::Process(unsigned long)+0xfa>
 17c:	4620      	mov	r0, r4
 17e:	f7ff fffe 	bl	0 <ArtNetNode::HandleDmx()>
 182:	f8d4 3bcc 	ldr.w	r3, [r4, #3020]	@ 0xbcc
 186:	f8c5 3100 	str.w	r3, [r5, #256]	@ 0x100
 18a:	e7b6      	b.n	fa <ArtNetNode::Process(unsigned long)+0xfa>
 18c:	f8d4 3bdc 	ldr.w	r3, [r4, #3036]	@ 0xbdc
 190:	2b00      	cmp	r3, #0
 192:	d0b2      	beq.n	fa <ArtNetNode::Process(unsigned long)+0xfa>
 194:	f8d5 2100 	ldr.w	r2, [r5, #256]	@ 0x100
 198:	f8d4 3bcc 	ldr.w	r3, [r4, #3020]	@ 0xbcc
 19c:	429a      	cmp	r2, r3
 19e:	d1ac      	bne.n	fa <ArtNetNode::Process(unsigned long)+0xfa>
 1a0:	f895 313e 	ldrb.w	r3, [r5, #318]	@ 0x13e
 1a4:	2b00      	cmp	r3, #0
 1a6:	d1a8      	bne.n	fa <ArtNetNode::Process(unsigned long)+0xfa>
 1a8:	4b0e      	ldr	r3, [pc, #56]	@ (1e4 <ArtNetNode::Process(unsigned long)+0x1e4>)
 1aa:	681b      	ldr	r3, [r3, #0]
 1ac:	f8c5 3104 	str.w	r3, [r5, #260]	@ 0x104
 1b0:	4620      	mov	r0, r4
 1b2:	f7ff fffe 	bl	0 <ArtNetNode::HandleSync()>
 1b6:	e7a0      	b.n	fa <ArtNetNode::Process(unsigned long)+0xfa>
 1b8:	4620      	mov	r0, r4
 1ba:	f7ff fffe 	bl	0 <ArtNetNode::HandleAddress()>
 1be:	e79c      	b.n	fa <ArtNetNode::Process(unsigned long)+0xfa>
 1c0:	4620      	mov	r0, r4
 1c2:	f7ff fffe 	bl	0 <ArtNetNode::HandleIpProg()>
 1c6:	e798      	b.n	fa <ArtNetNode::Process(unsigned long)+0xfa>
 1c8:	4620      	mov	r0, r4
 1ca:	f7ff fffe 	bl	0 <ArtNetNode::HandleTrigger()>
 1ce:	e794      	b.n	fa <ArtNetNode::Process(unsigned long)+0xfa>
 1d0:	4620      	mov	r0, r4
 1d2:	f7ff fffe 	bl	0 <ArtNetNode::HandlePoll()>
 1d6:	e790      	b.n	fa <ArtNetNode::Process(unsigned long)+0xfa>
 1d8:	2102      	movs	r1, #2
 1da:	e79e      	b.n	11a <ArtNetNode::Process(unsigned long)+0x11a>
	...

artnetnodehandleaddress.o:     file format elf32-littlearm


Disassembly of section .text._ZN8lightset4Data12IOutputClearEP8LightSetm:

00000000 <lightset::Data::IOutputClear(LightSet*, unsigned long)>:
   0:	b573      	push	{r0, r1, r4, r5, r6, lr}
   2:	4603      	mov	r3, r0
   4:	f240 6404 	movw	r4, #1540	@ 0x604
   8:	fb04 3402 	mla	r4, r4, r2, r3
   c:	4608      	mov	r0, r1
   e:	4611      	mov	r1, r2
  10:	f504 6280 	add.w	r2, r4, #1024	@ 0x400
  14:	4615      	mov	r5, r2
  16:	f504 64c0 	add.w	r4, r4, #1536	@ 0x600
  1a:	2600      	movs	r6, #0
  1c:	f805 6b01 	strb.w	r6, [r5], #1
  20:	42ac      	cmp	r4, r5
  22:	d1fb      	bne.n	1c <lightset::Data::IOutputClear(LightSet*, unsigned long)+0x1c>
  24:	f240 6404 	movw	r4, #1540	@ 0x604
  28:	fb04 3401 	mla	r4, r4, r1, r3
  2c:	f44f 7300 	mov.w	r3, #512	@ 0x200
  30:	f8c4 3600 	str.w	r3, [r4, #1536]	@ 0x600
  34:	2501      	movs	r5, #1
  36:	6804      	ldr	r4, [r0, #0]
  38:	9500      	str	r5, [sp, #0]
  3a:	6924      	ldr	r4, [r4, #16]
  3c:	47a0      	blx	r4
  3e:	b002      	add	sp, #8
  40:	bd70      	pop	{r4, r5, r6, pc}

Disassembly of section .text._ZN10ArtNetNode15MakePortAddressEtm:

00000000 <ArtNetNode::MakePortAddress(unsigned short, unsigned long)>:
   0:	2328      	movs	r3, #40	@ 0x28
   2:	fb03 0202 	mla	r2, r3, r2, r0
   6:	f001 010f 	and.w	r1, r1, #15
   a:	f892 3beb 	ldrb.w	r3, [r2, #3051]	@ 0xbeb
   e:	f892 2bec 	ldrb.w	r2, [r2, #3052]	@ 0xbec
  12:	021b      	lsls	r3, r3, #8
  14:	0112      	lsls	r2, r2, #4
  16:	b2d2      	uxtb	r2, r2
  18:	f403 43fe 	and.w	r3, r3, #32512	@ 0x7f00
  1c:	4313      	orrs	r3, r2
  1e:	ea43 0001 	orr.w	r0, r3, r1
  22:	4770      	bx	lr

Disassembly of section .text._ZN11ArtNetStore13SaveMergeModeEmN8lightset9MergeModeE:

00000000 <ArtNetStore::SaveMergeMode(unsigned long, lightset::MergeMode)>:
   0:	e92d 41f0 	stmdb	sp!, {r4, r5, r6, r7, r8, lr}
   4:	4b18      	ldr	r3, [pc, #96]	@ (68 <ArtNetStore::SaveMergeMode(unsigned long, lightset::MergeMode)+0x68>)
   6:	681c      	ldr	r4, [r3, #0]
   8:	4284      	cmp	r4, r0
   a:	b086      	sub	sp, #24
   c:	460d      	mov	r5, r1
   e:	d827      	bhi.n	60 <ArtNetStore::SaveMergeMode(unsigned long, lightset::MergeMode)+0x60>
  10:	1b04      	subs	r4, r0, r4
  12:	2c03      	cmp	r4, #3
  14:	d824      	bhi.n	60 <ArtNetStore::SaveMergeMode(unsigned long, lightset::MergeMode)+0x60>
  16:	f04f 080f 	mov.w	r8, #15
  1a:	2600      	movs	r6, #0
  1c:	e9cd 8600 	strd	r8, r6, [sp]
  20:	4f12      	ldr	r7, [pc, #72]	@ (6c <ArtNetStore::SaveMergeMode(unsigned long, lightset::MergeMode)+0x6c>)
  22:	2302      	movs	r3, #2
  24:	6838      	ldr	r0, [r7, #0]
  26:	f10d 0216 	add.w	r2, sp, #22
  2a:	2119      	movs	r1, #25
  2c:	f7ff fffe 	bl	0 <ConfigStore::Copy(configstore::Store, void*, unsigned long, unsigned long, bool)>
  30:	0064      	lsls	r4, r4, #1
  32:	f8bd 3016 	ldrh.w	r3, [sp, #22]
  36:	2203      	movs	r2, #3
  38:	40a2      	lsls	r2, r4
  3a:	f005 0503 	and.w	r5, r5, #3
  3e:	ea23 0302 	bic.w	r3, r3, r2
  42:	40a5      	lsls	r5, r4
  44:	432b      	orrs	r3, r5
  46:	e9cd 6601 	strd	r6, r6, [sp, #4]
  4a:	f8ad 3016 	strh.w	r3, [sp, #22]
  4e:	2302      	movs	r3, #2
  50:	9300      	str	r3, [sp, #0]
  52:	6838      	ldr	r0, [r7, #0]
  54:	f10d 0316 	add.w	r3, sp, #22
  58:	4642      	mov	r2, r8
  5a:	2119      	movs	r1, #25
  5c:	f7ff fffe 	bl	0 <ConfigStore::Update(configstore::Store, unsigned long, void const*, unsigned long, unsigned long, unsigned long)>
  60:	b006      	add	sp, #24
  62:	e8bd 81f0 	ldmia.w	sp!, {r4, r5, r6, r7, r8, pc}
  66:	bf00      	nop
	...

Disassembly of section .text._ZN11ArtNetStore12SaveUniverseEm:

00000000 <ArtNetStore::SaveUniverse(unsigned long)>:
   0:	b57f      	push	{r0, r1, r2, r3, r4, r5, r6, lr}
   2:	4b13      	ldr	r3, [pc, #76]	@ (50 <ArtNetStore::SaveUniverse(unsigned long)+0x50>)
   4:	681b      	ldr	r3, [r3, #0]
   6:	2228      	movs	r2, #40	@ 0x28
   8:	fb02 3300 	mla	r3, r2, r0, r3
   c:	f8d3 2bf0 	ldr.w	r2, [r3, #3056]	@ 0xbf0
  10:	2a02      	cmp	r2, #2
  12:	d01a      	beq.n	4a <ArtNetStore::SaveUniverse(unsigned long)+0x4a>
  14:	f8b3 3be8 	ldrh.w	r3, [r3, #3048]	@ 0xbe8
  18:	f8ad 3016 	strh.w	r3, [sp, #22]
  1c:	4b0d      	ldr	r3, [pc, #52]	@ (54 <ArtNetStore::SaveUniverse(unsigned long)+0x54>)
  1e:	681b      	ldr	r3, [r3, #0]
  20:	4283      	cmp	r3, r0
  22:	d812      	bhi.n	4a <ArtNetStore::SaveUniverse(unsigned long)+0x4a>
  24:	1ac0      	subs	r0, r0, r3
  26:	2803      	cmp	r0, #3
  28:	d80f      	bhi.n	4a <ArtNetStore::SaveUniverse(unsigned long)+0x4a>
  2a:	2300      	movs	r3, #0
  2c:	9302      	str	r3, [sp, #8]
  2e:	2302      	movs	r3, #2
  30:	0042      	lsls	r2, r0, #1
  32:	fa03 f000 	lsl.w	r0, r3, r0
  36:	e9cd 3000 	strd	r3, r0, [sp]
  3a:	4807      	ldr	r0, [pc, #28]	@ (58 <ArtNetStore::SaveUniverse(unsigned long)+0x58>)
  3c:	f10d 0316 	add.w	r3, sp, #22
  40:	6800      	ldr	r0, [r0, #0]
  42:	3205      	adds	r2, #5
  44:	2119      	movs	r1, #25
  46:	f7ff fffe 	bl	0 <ConfigStore::Update(configstore::Store, unsigned long, void const*, unsigned long, unsigned long, unsigned long)>
  4a:	b007      	add	sp, #28
  4c:	f85d fb04 	ldr.w	pc, [sp], #4
	...

Disassembly of section .text._ZN10ArtNetNode15SetLocalMergingEv:

00000000 <ArtNetNode::SetLocalMerging()>:
   0:	4b1c      	ldr	r3, [pc, #112]	@ (74 <ArtNetNode::SetLocalMerging()+0x74>)
   2:	e92d 41f0 	stmdb	sp!, {r4, r5, r6, r7, r8, lr}
   6:	f04f 0c01 	mov.w	ip, #1
   a:	681c      	ldr	r4, [r3, #0]
   c:	f500 65a0 	add.w	r5, r0, #1280	@ 0x500
  10:	4603      	mov	r3, r0
  12:	f04f 0e00 	mov.w	lr, #0
  16:	f241 1858 	movw	r8, #4440	@ 0x1158
  1a:	f8d3 2bf0 	ldr.w	r2, [r3, #3056]	@ 0xbf0
  1e:	2a01      	cmp	r2, #1
  20:	d104      	bne.n	2c <ArtNetNode::SetLocalMerging()+0x2c>
  22:	3328      	adds	r3, #40	@ 0x28
  24:	42ab      	cmp	r3, r5
  26:	d1f8      	bne.n	1a <ArtNetNode::SetLocalMerging()+0x1a>
  28:	e8bd 81f0 	ldmia.w	sp!, {r4, r5, r6, r7, r8, pc}
  2c:	f883 ebf8 	strb.w	lr, [r3, #3064]	@ 0xbf8
  30:	eb00 0108 	add.w	r1, r0, r8
  34:	4602      	mov	r2, r0
  36:	f8d2 6bf0 	ldr.w	r6, [r2, #3056]	@ 0xbf0
  3a:	b19e      	cbz	r6, 64 <ArtNetNode::SetLocalMerging()+0x64>
  3c:	f8d3 7bf4 	ldr.w	r7, [r3, #3060]	@ 0xbf4
  40:	f8d2 6bf4 	ldr.w	r6, [r2, #3060]	@ 0xbf4
  44:	42b7      	cmp	r7, r6
  46:	d10d      	bne.n	64 <ArtNetNode::SetLocalMerging()+0x64>
  48:	f8b3 7be8 	ldrh.w	r7, [r3, #3048]	@ 0xbe8
  4c:	f8b2 6be8 	ldrh.w	r6, [r2, #3048]	@ 0xbe8
  50:	42b7      	cmp	r7, r6
  52:	d107      	bne.n	64 <ArtNetNode::SetLocalMerging()+0x64>
  54:	f892 6bf8 	ldrb.w	r6, [r2, #3064]	@ 0xbf8
  58:	b956      	cbnz	r6, 70 <ArtNetNode::SetLocalMerging()+0x70>
  5a:	600c      	str	r4, [r1, #0]
  5c:	f883 cbf8 	strb.w	ip, [r3, #3064]	@ 0xbf8
  60:	f882 cbf8 	strb.w	ip, [r2, #3064]	@ 0xbf8
  64:	3228      	adds	r2, #40	@ 0x28
  66:	42aa      	cmp	r2, r5
  68:	f101 0124 	add.w	r1, r1, #36	@ 0x24
  6c:	d1e3      	bne.n	36 <ArtNetNode::SetLocalMerging()+0x36>
  6e:	e7d8      	b.n	22 <ArtNetNode::SetLocalMerging()+0x22>
  70:	60cc      	str	r4, [r1, #12]
  72:	e7f3      	b.n	5c <ArtNetNode::SetLocalMerging()+0x5c>
  74:	00000000 	.word	0x00000000

Disassembly of section .text._ZN10ArtNetNode17SetUniverseSwitchEmN8lightset7PortDirEh:

00000000 <ArtNetNode::SetUniverseSwitch(unsigned long, lightset::PortDir, unsigned char)>:
   0:	2a02      	cmp	r2, #2
   2:	e92d 43f8 	stmdb	sp!, {r3, r4, r5, r6, r7, r8, r9, lr}
   6:	4605      	mov	r5, r0
   8:	460c      	mov	r4, r1
   a:	4690      	mov	r8, r2
   c:	461f      	mov	r7, r3
   e:	f500 5680 	add.w	r6, r0, #4096	@ 0x1000
  12:	d124      	bne.n	5e <ArtNetNode::SetUniverseSwitch(unsigned long, lightset::PortDir, unsigned char)+0x5e>
  14:	2328      	movs	r3, #40	@ 0x28
  16:	fb03 0301 	mla	r3, r3, r1, r0
  1a:	2202      	movs	r2, #2
  1c:	f8d3 3bf0 	ldr.w	r3, [r3, #3056]	@ 0xbf0
  20:	2b01      	cmp	r3, #1
  22:	bf02      	ittt	eq
  24:	f896 3143 	ldrbeq.w	r3, [r6, #323]	@ 0x143
  28:	f103 33ff 	addeq.w	r3, r3, #4294967295	@ 0xffffffff
  2c:	f886 3143 	strbeq.w	r3, [r6, #323]	@ 0x143
  30:	2328      	movs	r3, #40	@ 0x28
  32:	fb03 0301 	mla	r3, r3, r1, r0
  36:	f8c3 2bf0 	str.w	r2, [r3, #3056]	@ 0xbf0
  3a:	4642      	mov	r2, r8
  3c:	4621      	mov	r1, r4
  3e:	4628      	mov	r0, r5
  40:	f7ff fffe 	bl	0 <ArtNetNode::SetUniverse4(unsigned long, lightset::PortDir)>
  44:	f896 3139 	ldrb.w	r3, [r6, #313]	@ 0x139
  48:	2b02      	cmp	r3, #2
  4a:	d12f      	bne.n	ac <ArtNetNode::SetUniverseSwitch(unsigned long, lightset::PortDir, unsigned char)+0xac>
  4c:	4620      	mov	r0, r4
  4e:	f7ff fffe 	bl	0 <ArtNetNode::SetUniverseSwitch(unsigned long, lightset::PortDir, unsigned char)>
  52:	4639      	mov	r1, r7
  54:	4620      	mov	r0, r4
  56:	e8bd 43f8 	ldmia.w	sp!, {r3, r4, r5, r6, r7, r8, r9, lr}
  5a:	f7ff bffe 	b.w	0 <artnet::display_universe_switch(unsigned long, unsigned char)>
  5e:	2a01      	cmp	r2, #1
  60:	d1eb      	bne.n	3a <ArtNetNode::SetUniverseSwitch(unsigned long, lightset::PortDir, unsigned char)+0x3a>
  62:	2328      	movs	r3, #40	@ 0x28
  64:	fb03 0301 	mla	r3, r3, r1, r0
  68:	f8d3 2bf0 	ldr.w	r2, [r3, #3056]	@ 0xbf0
  6c:	2a01      	cmp	r2, #1
  6e:	d00a      	beq.n	86 <ArtNetNode::SetUniverseSwitch(unsigned long, lightset::PortDir, unsigned char)+0x86>
  70:	f896 3143 	ldrb.w	r3, [r6, #323]	@ 0x143
  74:	3301      	adds	r3, #1
  76:	f886 3143 	strb.w	r3, [r6, #323]	@ 0x143
  7a:	b922      	cbnz	r2, 86 <ArtNetNode::SetUniverseSwitch(unsigned long, lightset::PortDir, unsigned char)+0x86>
  7c:	f896 3144 	ldrb.w	r3, [r6, #324]	@ 0x144
  80:	3b01      	subs	r3, #1
  82:	f886 3144 	strb.w	r3, [r6, #324]	@ 0x144
  86:	f04f 0928 	mov.w	r9, #40	@ 0x28
  8a:	fb09 5904 	mla	r9, r9, r4, r5
  8e:	f007 030f 	and.w	r3, r7, #15
  92:	f889 3bea 	strb.w	r3, [r9, #3050]	@ 0xbea
  96:	4622      	mov	r2, r4
  98:	4639      	mov	r1, r7
  9a:	4628      	mov	r0, r5
  9c:	f7ff fffe 	bl	0 <ArtNetNode::SetUniverseSwitch(unsigned long, lightset::PortDir, unsigned char)>
  a0:	2301      	movs	r3, #1
  a2:	f8a9 0be8 	strh.w	r0, [r9, #3048]	@ 0xbe8
  a6:	f8c9 3bf0 	str.w	r3, [r9, #3056]	@ 0xbf0
  aa:	e7c6      	b.n	3a <ArtNetNode::SetUniverseSwitch(unsigned long, lightset::PortDir, unsigned char)+0x3a>
  ac:	e8bd 83f8 	ldmia.w	sp!, {r3, r4, r5, r6, r7, r8, r9, pc}

Disassembly of section .text._ZN10ArtNetNode11SetUniverseEmN8lightset7PortDirEt:

00000000 <ArtNetNode::SetUniverse(unsigned long, lightset::PortDir, unsigned short)>:
   0:	b430      	push	{r4, r5}
   2:	2428      	movs	r4, #40	@ 0x28
   4:	fb04 0401 	mla	r4, r4, r1, r0
   8:	f3c3 2506 	ubfx	r5, r3, #8, #7
   c:	f884 5beb 	strb.w	r5, [r4, #3051]	@ 0xbeb
  10:	f3c3 1503 	ubfx	r5, r3, #4, #4
  14:	f884 5bec 	strb.w	r5, [r4, #3052]	@ 0xbec
  18:	bc30      	pop	{r4, r5}
  1a:	f003 030f 	and.w	r3, r3, #15
  1e:	f7ff bffe 	b.w	0 <ArtNetNode::SetUniverse(unsigned long, lightset::PortDir, unsigned short)>

Disassembly of section .text._ZN10ArtNetNode15SetSubnetSwitchEmh:

00000000 <ArtNetNode::SetSubnetSwitch(unsigned long, unsigned char)>:
   0:	b570      	push	{r4, r5, r6, lr}
   2:	2628      	movs	r6, #40	@ 0x28
   4:	fb06 0601 	mla	r6, r6, r1, r0
   8:	4604      	mov	r4, r0
   a:	f504 5480 	add.w	r4, r4, #4096	@ 0x1000
   e:	f886 2bec 	strb.w	r2, [r6, #3052]	@ 0xbec
  12:	460d      	mov	r5, r1
  14:	460a      	mov	r2, r1
  16:	f8b6 1be8 	ldrh.w	r1, [r6, #3048]	@ 0xbe8
  1a:	f7ff fffe 	bl	0 <ArtNetNode::SetSubnetSwitch(unsigned long, unsigned char)>
  1e:	f894 3139 	ldrb.w	r3, [r4, #313]	@ 0x139
  22:	f8a6 0be8 	strh.w	r0, [r6, #3048]	@ 0xbe8
  26:	2b02      	cmp	r3, #2
  28:	d102      	bne.n	30 <ArtNetNode::SetSubnetSwitch(unsigned long, unsigned char)+0x30>
  2a:	4628      	mov	r0, r5
  2c:	f7ff fffe 	bl	0 <ArtNetNode::SetSubnetSwitch(unsigned long, unsigned char)>
  30:	bd70      	pop	{r4, r5, r6, pc}

Disassembly of section .text._ZN10ArtNetNode12SetNetSwitchEmh:

00000000 <ArtNetNode::SetNetSwitch(unsigned long, unsigned char)>:
   0:	b570      	push	{r4, r5, r6, lr}
   2:	2628      	movs	r6, #40	@ 0x28
   4:	fb06 0601 	mla	r6, r6, r1, r0
   8:	4604      	mov	r4, r0
   a:	f504 5480 	add.w	r4, r4, #4096	@ 0x1000
   e:	f886 2beb 	strb.w	r2, [r6, #3051]	@ 0xbeb
  12:	460d      	mov	r5, r1
  14:	460a      	mov	r2, r1
  16:	f8b6 1be8 	ldrh.w	r1, [r6, #3048]	@ 0xbe8
  1a:	f7ff fffe 	bl	0 <ArtNetNode::SetNetSwitch(unsigned long, unsigned char)>
  1e:	f894 3139 	ldrb.w	r3, [r4, #313]	@ 0x139
  22:	f8a6 0be8 	strh.w	r0, [r6, #3048]	@ 0xbe8
  26:	2b02      	cmp	r3, #2
  28:	d102      	bne.n	30 <ArtNetNode::SetNetSwitch(unsigned long, unsigned char)+0x30>
  2a:	4628      	mov	r0, r5
  2c:	f7ff fffe 	bl	0 <ArtNetNode::SetNetSwitch(unsigned long, unsigned char)>
  30:	bd70      	pop	{r4, r5, r6, pc}

Disassembly of section .text._ZN10ArtNetNode12SetMergeModeEmN8lightset9MergeModeE:

00000000 <ArtNetNode::SetMergeMode(unsigned long, lightset::MergeMode)>:
   0:	b538      	push	{r3, r4, r5, lr}
   2:	460c      	mov	r4, r1
   4:	2124      	movs	r1, #36	@ 0x24
   6:	4603      	mov	r3, r0
   8:	4615      	mov	r5, r2
   a:	fb01 0004 	mla	r0, r1, r4, r0
   e:	f241 1270 	movw	r2, #4464	@ 0x1170
  12:	2d01      	cmp	r5, #1
  14:	5c82      	ldrb	r2, [r0, r2]
  16:	fb01 3104 	mla	r1, r1, r4, r3
  1a:	f241 1070 	movw	r0, #4464	@ 0x1170
  1e:	bf0c      	ite	eq
  20:	f042 0202 	orreq.w	r2, r2, #2
  24:	f002 02fd 	andne.w	r2, r2, #253	@ 0xfd
  28:	540a      	strb	r2, [r1, r0]
  2a:	2244      	movs	r2, #68	@ 0x44
  2c:	fb02 3204 	mla	r2, r2, r4, r3
  30:	f503 5380 	add.w	r3, r3, #4096	@ 0x1000
  34:	f8c2 51e8 	str.w	r5, [r2, #488]	@ 0x1e8
  38:	f893 3139 	ldrb.w	r3, [r3, #313]	@ 0x139
  3c:	2b02      	cmp	r3, #2
  3e:	d109      	bne.n	54 <ArtNetNode::SetMergeMode(unsigned long, lightset::MergeMode)+0x54>
  40:	4629      	mov	r1, r5
  42:	4620      	mov	r0, r4
  44:	f7ff fffe 	bl	0 <ArtNetNode::SetMergeMode(unsigned long, lightset::MergeMode)>
  48:	4629      	mov	r1, r5
  4a:	4620      	mov	r0, r4
  4c:	e8bd 4038 	ldmia.w	sp!, {r3, r4, r5, lr}
  50:	f7ff bffe 	b.w	0 <artnet::display_merge_mode(unsigned long, lightset::MergeMode)>
  54:	bd38      	pop	{r3, r4, r5, pc}

Disassembly of section .text._ZN10ArtNetNode11SetFailSafeEN10artnetnode8FailSafeE:

00000000 <ArtNetNode::SetFailSafe(artnetnode::FailSafe)>:
   0:	b530      	push	{r4, r5, lr}
   2:	f500 5280 	add.w	r2, r0, #4096	@ 0x1000
   6:	f1a1 0408 	sub.w	r4, r1, #8
   a:	f892 382d 	ldrb.w	r3, [r2, #2093]	@ 0x82d
   e:	b087      	sub	sp, #28
  10:	f003 033f 	and.w	r3, r3, #63	@ 0x3f
  14:	2c04      	cmp	r4, #4
  16:	d806      	bhi.n	26 <ArtNetNode::SetFailSafe(artnetnode::FailSafe)+0x26>
  18:	e8df f004 	tbb	[pc, r4]
  1c:	05240305 	.word	0x05240305
  20:	05          	.byte	0x05
  21:	00          	.byte	0x00
  22:	f043 0340 	orr.w	r3, r3, #64	@ 0x40
  26:	f882 382d 	strb.w	r3, [r2, #2093]	@ 0x82d
  2a:	f892 3139 	ldrb.w	r3, [r2, #313]	@ 0x139
  2e:	f001 0403 	and.w	r4, r1, #3
  32:	2b02      	cmp	r3, #2
  34:	6244      	str	r4, [r0, #36]	@ 0x24
  36:	d118      	bne.n	6a <ArtNetNode::SetFailSafe(artnetnode::FailSafe)+0x6a>
  38:	2320      	movs	r3, #32
  3a:	2200      	movs	r2, #0
  3c:	e9cd 3201 	strd	r3, r2, [sp, #4]
  40:	480b      	ldr	r0, [pc, #44]	@ (70 <ArtNetNode::SetFailSafe(artnetnode::FailSafe)+0x70>)
  42:	f88d 4017 	strb.w	r4, [sp, #23]
  46:	2301      	movs	r3, #1
  48:	9300      	str	r3, [sp, #0]
  4a:	6800      	ldr	r0, [r0, #0]
  4c:	f10d 0317 	add.w	r3, sp, #23
  50:	2212      	movs	r2, #18
  52:	2119      	movs	r1, #25
  54:	f7ff fffe 	bl	0 <ConfigStore::Update(configstore::Store, unsigned long, void const*, unsigned long, unsigned long, unsigned long)>
  58:	4620      	mov	r0, r4
  5a:	b007      	add	sp, #28
  5c:	e8bd 4030 	ldmia.w	sp!, {r4, r5, lr}
  60:	f7ff bffe 	b.w	0 <artnet::display_failsafe(unsigned char)>
  64:	f043 0380 	orr.w	r3, r3, #128	@ 0x80
  68:	e7dd      	b.n	26 <ArtNetNode::SetFailSafe(artnetnode::FailSafe)+0x26>
  6a:	b007      	add	sp, #28
  6c:	bd30      	pop	{r4, r5, pc}
  6e:	bf00      	nop
  70:	00000000 	.word	0x00000000

Disassembly of section .text._ZN10ArtNetNode13HandleAddressEv:

00000000 <ArtNetNode::HandleAddress()>:
   0:	e92d 41f0 	stmdb	sp!, {r4, r5, r6, r7, r8, lr}
   4:	f500 5780 	add.w	r7, r0, #4096	@ 0x1000
   8:	f8d0 6bc8 	ldr.w	r6, [r0, #3016]	@ 0xbc8
   c:	2301      	movs	r3, #1
   e:	f887 3138 	strb.w	r3, [r7, #312]	@ 0x138
  12:	7b75      	ldrb	r5, [r6, #13]
  14:	4604      	mov	r4, r0
  16:	b105      	cbz	r5, 1a <ArtNetNode::HandleAddress()+0x1a>
  18:	3d01      	subs	r5, #1
  1a:	7bb3      	ldrb	r3, [r6, #14]
  1c:	b143      	cbz	r3, 30 <ArtNetNode::HandleAddress()+0x30>
  1e:	f106 020e 	add.w	r2, r6, #14
  22:	4629      	mov	r1, r5
  24:	4620      	mov	r0, r4
  26:	f7ff fffe 	bl	0 <ArtNetNode::SetShortName(unsigned long, char const*)>
  2a:	2306      	movs	r3, #6
  2c:	f887 3138 	strb.w	r3, [r7, #312]	@ 0x138
  30:	f896 3020 	ldrb.w	r3, [r6, #32]
  34:	b13b      	cbz	r3, 46 <ArtNetNode::HandleAddress()+0x46>
  36:	f106 0120 	add.w	r1, r6, #32
  3a:	4620      	mov	r0, r4
  3c:	f7ff fffe 	bl	0 <ArtNetNode::SetLongName(char const*)>
  40:	2307      	movs	r3, #7
  42:	f887 3138 	strb.w	r3, [r7, #312]	@ 0x138
  46:	f896 2068 	ldrb.w	r2, [r6, #104]	@ 0x68
  4a:	2a00      	cmp	r2, #0
  4c:	d13f      	bne.n	ce <ArtNetNode::HandleAddress()+0xce>
  4e:	4629      	mov	r1, r5
  50:	4620      	mov	r0, r4
  52:	f7ff fffe 	bl	0 <ArtNetNode::HandleAddress()>
  56:	7b32      	ldrb	r2, [r6, #12]
  58:	2a00      	cmp	r2, #0
  5a:	d13d      	bne.n	d8 <ArtNetNode::HandleAddress()+0xd8>
  5c:	4629      	mov	r1, r5
  5e:	4620      	mov	r0, r4
  60:	f7ff fffe 	bl	0 <ArtNetNode::HandleAddress()>
  64:	f896 3064 	ldrb.w	r3, [r6, #100]	@ 0x64
  68:	2b7f      	cmp	r3, #127	@ 0x7f
  6a:	d00c      	beq.n	86 <ArtNetNode::HandleAddress()+0x86>
  6c:	2228      	movs	r2, #40	@ 0x28
  6e:	fb02 4205 	mla	r2, r2, r5, r4
  72:	f8d2 2bf0 	ldr.w	r2, [r2, #3056]	@ 0xbf0
  76:	2a01      	cmp	r2, #1
  78:	d105      	bne.n	86 <ArtNetNode::HandleAddress()+0x86>
  7a:	bb93      	cbnz	r3, e2 <ArtNetNode::HandleAddress()+0xe2>
  7c:	4613      	mov	r3, r2
  7e:	4629      	mov	r1, r5
  80:	4620      	mov	r0, r4
  82:	f7ff fffe 	bl	0 <ArtNetNode::HandleAddress()>
  86:	f896 2060 	ldrb.w	r2, [r6, #96]	@ 0x60
  8a:	2a7f      	cmp	r2, #127	@ 0x7f
  8c:	d00b      	beq.n	a6 <ArtNetNode::HandleAddress()+0xa6>
  8e:	2328      	movs	r3, #40	@ 0x28
  90:	fb03 4305 	mla	r3, r3, r5, r4
  94:	f8d3 1bf0 	ldr.w	r1, [r3, #3056]	@ 0xbf0
  98:	b929      	cbnz	r1, a6 <ArtNetNode::HandleAddress()+0xa6>
  9a:	bb3a      	cbnz	r2, ec <ArtNetNode::HandleAddress()+0xec>
  9c:	2301      	movs	r3, #1
  9e:	4629      	mov	r1, r5
  a0:	4620      	mov	r0, r4
  a2:	f7ff fffe 	bl	0 <ArtNetNode::HandleAddress()>
  a6:	f896 106a 	ldrb.w	r1, [r6, #106]	@ 0x6a
  aa:	2913      	cmp	r1, #19
  ac:	d824      	bhi.n	f8 <ArtNetNode::HandleAddress()+0xf8>
  ae:	b369      	cbz	r1, 10c <ArtNetNode::HandleAddress()+0x10c>
  b0:	1e4b      	subs	r3, r1, #1
  b2:	2b12      	cmp	r3, #18
  b4:	d82a      	bhi.n	10c <ArtNetNode::HandleAddress()+0x10c>
  b6:	e8df f003 	tbb	[pc, r3]
  ba:	8a77      	.short	0x8a77
  bc:	2929aa9a 	.word	0x2929aa9a
  c0:	b7b7b729 	.word	0xb7b7b729
  c4:	2929b7b7 	.word	0x2929b7b7
  c8:	bbbbbb29 	.word	0xbbbbbb29
  cc:	bb          	.byte	0xbb
  cd:	00          	.byte	0x00
  ce:	0613      	lsls	r3, r2, #24
  d0:	d5c1      	bpl.n	56 <ArtNetNode::HandleAddress()+0x56>
  d2:	f002 027f 	and.w	r2, r2, #127	@ 0x7f
  d6:	e7ba      	b.n	4e <ArtNetNode::HandleAddress()+0x4e>
  d8:	0610      	lsls	r0, r2, #24
  da:	d5c3      	bpl.n	64 <ArtNetNode::HandleAddress()+0x64>
  dc:	f002 027f 	and.w	r2, r2, #127	@ 0x7f
  e0:	e7bc      	b.n	5c <ArtNetNode::HandleAddress()+0x5c>
  e2:	0619      	lsls	r1, r3, #24
  e4:	d5cf      	bpl.n	86 <ArtNetNode::HandleAddress()+0x86>
  e6:	f003 037f 	and.w	r3, r3, #127	@ 0x7f
  ea:	e7c8      	b.n	7e <ArtNetNode::HandleAddress()+0x7e>
  ec:	0613      	lsls	r3, r2, #24
  ee:	d5da      	bpl.n	a6 <ArtNetNode::HandleAddress()+0xa6>
  f0:	f002 037f 	and.w	r3, r2, #127	@ 0x7f
  f4:	460a      	mov	r2, r1
  f6:	e7d2      	b.n	9e <ArtNetNode::HandleAddress()+0x9e>
  f8:	2973      	cmp	r1, #115	@ 0x73
  fa:	d81e      	bhi.n	13a <ArtNetNode::HandleAddress()+0x13a>
  fc:	296f      	cmp	r1, #111	@ 0x6f
  fe:	f200 80ad 	bhi.w	25c <ArtNetNode::HandleAddress()+0x25c>
 102:	2953      	cmp	r1, #83	@ 0x53
 104:	d80b      	bhi.n	11e <ArtNetNode::HandleAddress()+0x11e>
 106:	294f      	cmp	r1, #79	@ 0x4f
 108:	f200 809e 	bhi.w	248 <ArtNetNode::HandleAddress()+0x248>
 10c:	f8d4 2bcc 	ldr.w	r2, [r4, #3020]	@ 0xbcc
 110:	7b71      	ldrb	r1, [r6, #13]
 112:	4620      	mov	r0, r4
 114:	2300      	movs	r3, #0
 116:	e8bd 41f0 	ldmia.w	sp!, {r4, r5, r6, r7, r8, lr}
 11a:	f7ff bffe 	b.w	0 <ArtNetNode::SendPollRelply(unsigned long, unsigned long, artnet::ArtPollQueue*)>
 11e:	3960      	subs	r1, #96	@ 0x60
 120:	2903      	cmp	r1, #3
 122:	d8f3      	bhi.n	10c <ArtNetNode::HandleAddress()+0x10c>
 124:	2200      	movs	r2, #0
 126:	4629      	mov	r1, r5
 128:	4620      	mov	r0, r4
 12a:	f7ff fffe 	bl	0 <ArtNetNode::SetPortProtocol4(unsigned long, artnet::PortProtocol)>
 12e:	2202      	movs	r2, #2
 130:	4629      	mov	r1, r5
 132:	4620      	mov	r0, r4
 134:	f7ff fffe 	bl	0 <ArtNetNode::SetUniverse4(unsigned long, lightset::PortDir)>
 138:	e7e8      	b.n	10c <ArtNetNode::HandleAddress()+0x10c>
 13a:	3170      	adds	r1, #112	@ 0x70
 13c:	b2c9      	uxtb	r1, r1
 13e:	2903      	cmp	r1, #3
 140:	d8e4      	bhi.n	10c <ArtNetNode::HandleAddress()+0x10c>
 142:	2328      	movs	r3, #40	@ 0x28
 144:	fb03 4305 	mla	r3, r3, r5, r4
 148:	f8d3 3bf4 	ldr.w	r3, [r3, #3060]	@ 0xbf4
 14c:	b92b      	cbnz	r3, 15a <ArtNetNode::HandleAddress()+0x15a>
 14e:	f8d4 1bdc 	ldr.w	r1, [r4, #3036]	@ 0xbdc
 152:	4846      	ldr	r0, [pc, #280]	@ (26c <ArtNetNode::HandleAddress()+0x26c>)
 154:	462a      	mov	r2, r5
 156:	f7ff fffe 	bl	0 <ArtNetNode::HandleAddress()>
 15a:	2328      	movs	r3, #40	@ 0x28
 15c:	fb03 4305 	mla	r3, r3, r5, r4
 160:	f8d3 3bf4 	ldr.w	r3, [r3, #3060]	@ 0xbf4
 164:	2b01      	cmp	r3, #1
 166:	d1d1      	bne.n	10c <ArtNetNode::HandleAddress()+0x10c>
 168:	f8d4 1bbc 	ldr.w	r1, [r4, #3004]	@ 0xbbc
 16c:	483f      	ldr	r0, [pc, #252]	@ (26c <ArtNetNode::HandleAddress()+0x26c>)
 16e:	462a      	mov	r2, r5
 170:	f7ff fffe 	bl	0 <ArtNetNode::HandleAddress()>
 174:	230c      	movs	r3, #12
 176:	fb03 4305 	mla	r3, r3, r5, r4
 17a:	f8d3 8034 	ldr.w	r8, [r3, #52]	@ 0x34
 17e:	f1b8 0f01 	cmp.w	r8, #1
 182:	d10d      	bne.n	1a0 <ArtNetNode::HandleAddress()+0x1a0>
 184:	2744      	movs	r7, #68	@ 0x44
 186:	fb07 4705 	mla	r7, r7, r5, r4
 18a:	f897 31f1 	ldrb.w	r3, [r7, #497]	@ 0x1f1
 18e:	b93b      	cbnz	r3, 1a0 <ArtNetNode::HandleAddress()+0x1a0>
 190:	f8d4 0bbc 	ldr.w	r0, [r4, #3004]	@ 0xbbc
 194:	6803      	ldr	r3, [r0, #0]
 196:	4629      	mov	r1, r5
 198:	689b      	ldr	r3, [r3, #8]
 19a:	4798      	blx	r3
 19c:	f887 81f1 	strb.w	r8, [r7, #497]	@ 0x1f1
 1a0:	2300      	movs	r3, #0
 1a2:	f884 3029 	strb.w	r3, [r4, #41]	@ 0x29
 1a6:	e7b1      	b.n	10c <ArtNetNode::HandleAddress()+0x10c>
 1a8:	2000      	movs	r0, #0
 1aa:	f504 538a 	add.w	r3, r4, #4416	@ 0x1140
 1ae:	f504 52ae 	add.w	r2, r4, #5568	@ 0x15c0
 1b2:	f887 013e 	strb.w	r0, [r7, #318]	@ 0x13e
 1b6:	3318      	adds	r3, #24
 1b8:	3218      	adds	r2, #24
 1ba:	7e19      	ldrb	r1, [r3, #24]
 1bc:	6018      	str	r0, [r3, #0]
 1be:	f021 0108 	bic.w	r1, r1, #8
 1c2:	60d8      	str	r0, [r3, #12]
 1c4:	7619      	strb	r1, [r3, #24]
 1c6:	3324      	adds	r3, #36	@ 0x24
 1c8:	429a      	cmp	r2, r3
 1ca:	d1f6      	bne.n	1ba <ArtNetNode::HandleAddress()+0x1ba>
 1cc:	e79e      	b.n	10c <ArtNetNode::HandleAddress()+0x10c>
 1ce:	4b28      	ldr	r3, [pc, #160]	@ (270 <ArtNetNode::HandleAddress()+0x270>)
 1d0:	2200      	movs	r2, #0
 1d2:	6818      	ldr	r0, [r3, #0]
 1d4:	2102      	movs	r1, #2
 1d6:	f7ff fffe 	bl	0 <Hardware::SetModeWithLock(hardware::ledblink::Mode, bool)>
 1da:	f897 376b 	ldrb.w	r3, [r7, #1899]	@ 0x76b
 1de:	f063 033f 	orn	r3, r3, #63	@ 0x3f
 1e2:	f887 376b 	strb.w	r3, [r7, #1899]	@ 0x76b
 1e6:	2301      	movs	r3, #1
 1e8:	f884 3bb0 	strb.w	r3, [r4, #2992]	@ 0xbb0
 1ec:	e78e      	b.n	10c <ArtNetNode::HandleAddress()+0x10c>
 1ee:	4b20      	ldr	r3, [pc, #128]	@ (270 <ArtNetNode::HandleAddress()+0x270>)
 1f0:	2201      	movs	r2, #1
 1f2:	6818      	ldr	r0, [r3, #0]
 1f4:	2100      	movs	r1, #0
 1f6:	f7ff fffe 	bl	0 <Hardware::SetModeWithLock(hardware::ledblink::Mode, bool)>
 1fa:	f897 376b 	ldrb.w	r3, [r7, #1899]	@ 0x76b
 1fe:	f003 033f 	and.w	r3, r3, #63	@ 0x3f
 202:	f063 037f 	orn	r3, r3, #127	@ 0x7f
 206:	f887 376b 	strb.w	r3, [r7, #1899]	@ 0x76b
 20a:	2300      	movs	r3, #0
 20c:	e7ec      	b.n	1e8 <ArtNetNode::HandleAddress()+0x1e8>
 20e:	4b18      	ldr	r3, [pc, #96]	@ (270 <ArtNetNode::HandleAddress()+0x270>)
 210:	2201      	movs	r2, #1
 212:	6818      	ldr	r0, [r3, #0]
 214:	2104      	movs	r1, #4
 216:	f7ff fffe 	bl	0 <Hardware::SetModeWithLock(hardware::ledblink::Mode, bool)>
 21a:	f897 376b 	ldrb.w	r3, [r7, #1899]	@ 0x76b
 21e:	f003 033f 	and.w	r3, r3, #63	@ 0x3f
 222:	f043 0340 	orr.w	r3, r3, #64	@ 0x40
 226:	e7ee      	b.n	206 <ArtNetNode::HandleAddress()+0x206>
 228:	4620      	mov	r0, r4
 22a:	f7ff fffe 	bl	0 <ArtNetNode::HandleAddress()>
 22e:	e76d      	b.n	10c <ArtNetNode::HandleAddress()+0x10c>
 230:	2201      	movs	r2, #1
 232:	4629      	mov	r1, r5
 234:	4620      	mov	r0, r4
 236:	f7ff fffe 	bl	0 <ArtNetNode::HandleAddress()>
 23a:	2344      	movs	r3, #68	@ 0x44
 23c:	fb03 4305 	mla	r3, r3, r5, r4
 240:	2201      	movs	r2, #1
 242:	f8c3 21e8 	str.w	r2, [r3, #488]	@ 0x1e8
 246:	e761      	b.n	10c <ArtNetNode::HandleAddress()+0x10c>
 248:	2200      	movs	r2, #0
 24a:	4629      	mov	r1, r5
 24c:	4620      	mov	r0, r4
 24e:	f7ff fffe 	bl	0 <ArtNetNode::HandleAddress()>
 252:	2344      	movs	r3, #68	@ 0x44
 254:	fb03 4305 	mla	r3, r3, r5, r4
 258:	2200      	movs	r2, #0
 25a:	e7f2      	b.n	242 <ArtNetNode::HandleAddress()+0x242>
 25c:	2201      	movs	r2, #1
 25e:	4629      	mov	r1, r5
 260:	4620      	mov	r0, r4
 262:	f7ff fffe 	bl	0 <ArtNetNode::SetPortProtocol4(unsigned long, artnet::PortProtocol)>
 266:	2201      	movs	r2, #1
 268:	e762      	b.n	130 <ArtNetNode::HandleAddress()+0x130>
 26a:	bf00      	nop
	...

artnetnodehandledmx.o:     file format elf32-littlearm


Disassembly of section .text._ZN10ArtNetNode17UpdateMergeStatusEm:

00000000 <ArtNetNode::UpdateMergeStatus(unsigned long)>:
   0:	f500 5380 	add.w	r3, r0, #4096	@ 0x1000
   4:	f893 213e 	ldrb.w	r2, [r3, #318]	@ 0x13e
   8:	b91a      	cbnz	r2, 12 <ArtNetNode::UpdateMergeStatus(unsigned long)+0x12>
   a:	f240 1201 	movw	r2, #257	@ 0x101
   e:	f8a3 213e 	strh.w	r2, [r3, #318]	@ 0x13e
  12:	eb01 01c1 	add.w	r1, r1, r1, lsl #3
  16:	eb00 0081 	add.w	r0, r0, r1, lsl #2
  1a:	f241 1270 	movw	r2, #4464	@ 0x1170
  1e:	5c83      	ldrb	r3, [r0, r2]
  20:	f043 0308 	orr.w	r3, r3, #8
  24:	5483      	strb	r3, [r0, r2]
  26:	4770      	bx	lr

Disassembly of section .text._ZN10ArtNetNode18CheckMergeTimeoutsEm:

00000000 <ArtNetNode::CheckMergeTimeouts(unsigned long)>:
   0:	eb01 02c1 	add.w	r2, r1, r1, lsl #3
   4:	eb00 0282 	add.w	r2, r0, r2, lsl #2
   8:	f241 1354 	movw	r3, #4436	@ 0x1154
   c:	b570      	push	{r4, r5, r6, lr}
   e:	58d3      	ldr	r3, [r2, r3]
  10:	f8d0 4bd0 	ldr.w	r4, [r0, #3024]	@ 0xbd0
  14:	f242 7e10 	movw	lr, #10000	@ 0x2710
  18:	eba4 0c03 	sub.w	ip, r4, r3
  1c:	45f4      	cmp	ip, lr
  1e:	ea4f 03c1 	mov.w	r3, r1, lsl #3
  22:	d90b      	bls.n	3c <ArtNetNode::CheckMergeTimeouts(unsigned long)+0x3c>
  24:	f241 1e70 	movw	lr, #4464	@ 0x1170
  28:	f241 1558 	movw	r5, #4440	@ 0x1158
  2c:	f812 c00e 	ldrb.w	ip, [r2, lr]
  30:	2600      	movs	r6, #0
  32:	f02c 0c08 	bic.w	ip, ip, #8
  36:	f802 c00e 	strb.w	ip, [r2, lr]
  3a:	5156      	str	r6, [r2, r5]
  3c:	440b      	add	r3, r1
  3e:	eb00 0383 	add.w	r3, r0, r3, lsl #2
  42:	f503 518b 	add.w	r1, r3, #4448	@ 0x1160
  46:	f242 7210 	movw	r2, #10000	@ 0x2710
  4a:	6809      	ldr	r1, [r1, #0]
  4c:	1a64      	subs	r4, r4, r1
  4e:	4294      	cmp	r4, r2
  50:	d909      	bls.n	66 <ArtNetNode::CheckMergeTimeouts(unsigned long)+0x66>
  52:	f241 1264 	movw	r2, #4452	@ 0x1164
  56:	2400      	movs	r4, #0
  58:	509c      	str	r4, [r3, r2]
  5a:	f241 1170 	movw	r1, #4464	@ 0x1170
  5e:	5c5a      	ldrb	r2, [r3, r1]
  60:	f022 0208 	bic.w	r2, r2, #8
  64:	545a      	strb	r2, [r3, r1]
  66:	2300      	movs	r3, #0
  68:	f500 5c8b 	add.w	ip, r0, #4448	@ 0x1160
  6c:	4619      	mov	r1, r3
  6e:	f10c 0c10 	add.w	ip, ip, #16
  72:	f81c 2003 	ldrb.w	r2, [ip, r3]
  76:	3324      	adds	r3, #36	@ 0x24
  78:	f3c2 02c0 	ubfx	r2, r2, #3, #1
  7c:	f5b3 6f90 	cmp.w	r3, #1152	@ 0x480
  80:	ea41 0102 	orr.w	r1, r1, r2
  84:	d1f5      	bne.n	72 <ArtNetNode::CheckMergeTimeouts(unsigned long)+0x72>
  86:	b929      	cbnz	r1, 94 <ArtNetNode::CheckMergeTimeouts(unsigned long)+0x94>
  88:	f500 5080 	add.w	r0, r0, #4096	@ 0x1000
  8c:	f44f 7380 	mov.w	r3, #256	@ 0x100
  90:	f8a0 313e 	strh.w	r3, [r0, #318]	@ 0x13e
  94:	bd70      	pop	{r4, r5, r6, pc}
  96:	bf00      	nop

Disassembly of section .text._ZN10ArtNetNode9HandleDmxEv:

00000000 <ArtNetNode::HandleDmx()>:
   0:	e92d 4ff0 	stmdb	sp!, {r4, r5, r6, r7, r8, r9, sl, fp, lr}
   4:	f8d0 abc8 	ldr.w	sl, [r0, #3016]	@ 0xbc8
   8:	4abc      	ldr	r2, [pc, #752]	@ (2fc <ArtNetNode::HandleDmx()+0x2fc>)
   a:	f8ba 3010 	ldrh.w	r3, [sl, #16]
   e:	ba5b      	rev16	r3, r3
  10:	b29b      	uxth	r3, r3
  12:	b089      	sub	sp, #36	@ 0x24
  14:	f5b3 7f00 	cmp.w	r3, #512	@ 0x200
  18:	f46f 6180 	mvn.w	r1, #1024	@ 0x400
  1c:	bf28      	it	cs
  1e:	f44f 7300 	movcs.w	r3, #512	@ 0x200
  22:	1856      	adds	r6, r2, r1
  24:	f500 558a 	add.w	r5, r0, #4416	@ 0x1140
  28:	9305      	str	r3, [sp, #20]
  2a:	18f7      	adds	r7, r6, r3
  2c:	f500 5380 	add.w	r3, r0, #4096	@ 0x1000
  30:	4681      	mov	r9, r0
  32:	4604      	mov	r4, r0
  34:	3514      	adds	r5, #20
  36:	f500 68a0 	add.w	r8, r0, #1280	@ 0x500
  3a:	2100      	movs	r1, #0
  3c:	9303      	str	r3, [sp, #12]
  3e:	e00d      	b.n	5c <ArtNetNode::HandleDmx()+0x5c>
  40:	3428      	adds	r4, #40	@ 0x28
  42:	4544      	cmp	r4, r8
  44:	f101 0101 	add.w	r1, r1, #1
  48:	f105 0524 	add.w	r5, r5, #36	@ 0x24
  4c:	f202 6204 	addw	r2, r2, #1540	@ 0x604
  50:	f206 6604 	addw	r6, r6, #1540	@ 0x604
  54:	f207 6704 	addw	r7, r7, #1540	@ 0x604
  58:	f000 809e 	beq.w	198 <ArtNetNode::HandleDmx()+0x198>
  5c:	f8d4 3bf0 	ldr.w	r3, [r4, #3056]	@ 0xbf0
  60:	2b01      	cmp	r3, #1
  62:	d1ed      	bne.n	40 <ArtNetNode::HandleDmx()+0x40>
  64:	f8d4 3bf4 	ldr.w	r3, [r4, #3060]	@ 0xbf4
  68:	2b00      	cmp	r3, #0
  6a:	d1e9      	bne.n	40 <ArtNetNode::HandleDmx()+0x40>
  6c:	f8b4 0be8 	ldrh.w	r0, [r4, #3048]	@ 0xbe8
  70:	f8ba 300e 	ldrh.w	r3, [sl, #14]
  74:	4298      	cmp	r0, r3
  76:	d1e3      	bne.n	40 <ArtNetNode::HandleDmx()+0x40>
  78:	7f2b      	ldrb	r3, [r5, #28]
  7a:	f043 0380 	orr.w	r3, r3, #128	@ 0x80
  7e:	772b      	strb	r3, [r5, #28]
  80:	9304      	str	r3, [sp, #16]
  82:	9b03      	ldr	r3, [sp, #12]
  84:	f893 013e 	ldrb.w	r0, [r3, #318]	@ 0x13e
  88:	b158      	cbz	r0, a2 <ArtNetNode::HandleDmx()+0xa2>
  8a:	f893 0140 	ldrb.w	r0, [r3, #320]	@ 0x140
  8e:	b940      	cbnz	r0, a2 <ArtNetNode::HandleDmx()+0xa2>
  90:	4648      	mov	r0, r9
  92:	e9cd 1206 	strd	r1, r2, [sp, #24]
  96:	f7ff fffe 	bl	0 <ArtNetNode::HandleDmx()>
  9a:	e9dd 1206 	ldrd	r1, r2, [sp, #24]
  9e:	7f2b      	ldrb	r3, [r5, #28]
  a0:	9304      	str	r3, [sp, #16]
  a2:	9b04      	ldr	r3, [sp, #16]
  a4:	6868      	ldr	r0, [r5, #4]
  a6:	f8d5 c010 	ldr.w	ip, [r5, #16]
  aa:	f8d9 ebcc 	ldr.w	lr, [r9, #3020]	@ 0xbcc
  ae:	f3c3 0340 	ubfx	r3, r3, #1, #1
  b2:	9306      	str	r3, [sp, #24]
  b4:	2800      	cmp	r0, #0
  b6:	f000 8185 	beq.w	3c4 <ArtNetNode::HandleDmx()+0x3c4>
  ba:	4570      	cmp	r0, lr
  bc:	d06f      	beq.n	19e <ArtNetNode::HandleDmx()+0x19e>
  be:	f1bc 0f00 	cmp.w	ip, #0
  c2:	d166      	bne.n	192 <ArtNetNode::HandleDmx()+0x192>
  c4:	f8c5 e010 	str.w	lr, [r5, #16]
  c8:	9b03      	ldr	r3, [sp, #12]
  ca:	f8d9 0bd0 	ldr.w	r0, [r9, #3024]	@ 0xbd0
  ce:	60e8      	str	r0, [r5, #12]
  d0:	f893 013e 	ldrb.w	r0, [r3, #318]	@ 0x13e
  d4:	f89a c00d 	ldrb.w	ip, [sl, #13]
  d8:	f8a5 c014 	strh.w	ip, [r5, #20]
  dc:	b918      	cbnz	r0, e6 <ArtNetNode::HandleDmx()+0xe6>
  de:	f240 1001 	movw	r0, #257	@ 0x101
  e2:	f8a3 013e 	strh.w	r0, [r3, #318]	@ 0x13e
  e6:	9b04      	ldr	r3, [sp, #16]
  e8:	f043 0308 	orr.w	r3, r3, #8
  ec:	772b      	strb	r3, [r5, #28]
  ee:	9b05      	ldr	r3, [sp, #20]
  f0:	f10a 0012 	add.w	r0, sl, #18
  f4:	f206 2c01 	addw	ip, r6, #513	@ 0x201
  f8:	2b00      	cmp	r3, #0
  fa:	f000 815e 	beq.w	3ba <ArtNetNode::HandleDmx()+0x3ba>
  fe:	f103 0b12 	add.w	fp, r3, #18
 102:	44d3      	add	fp, sl
 104:	4603      	mov	r3, r0
 106:	f813 eb01 	ldrb.w	lr, [r3], #1
 10a:	f80c eb01 	strb.w	lr, [ip], #1
 10e:	459b      	cmp	fp, r3
 110:	d1f9      	bne.n	106 <ArtNetNode::HandleDmx()+0x106>
 112:	9b05      	ldr	r3, [sp, #20]
 114:	f8c6 3601 	str.w	r3, [r6, #1537]	@ 0x601
 118:	9b06      	ldr	r3, [sp, #24]
 11a:	2b00      	cmp	r3, #0
 11c:	f000 81cc 	beq.w	4b8 <ArtNetNode::HandleDmx()+0x4b8>
 120:	4613      	mov	r3, r2
 122:	f810 cb01 	ldrb.w	ip, [r0], #1
 126:	f803 cb01 	strb.w	ip, [r3], #1
 12a:	4583      	cmp	fp, r0
 12c:	d1f9      	bne.n	122 <ArtNetNode::HandleDmx()+0x122>
 12e:	f8d6 e601 	ldr.w	lr, [r6, #1537]	@ 0x601
 132:	9b03      	ldr	r3, [sp, #12]
 134:	f8d9 0bdc 	ldr.w	r0, [r9, #3036]	@ 0xbdc
 138:	f893 c13d 	ldrb.w	ip, [r3, #317]	@ 0x13d
 13c:	6803      	ldr	r3, [r0, #0]
 13e:	f8d3 b010 	ldr.w	fp, [r3, #16]
 142:	f1bc 0f00 	cmp.w	ip, #0
 146:	d005      	beq.n	154 <ArtNetNode::HandleDmx()+0x154>
 148:	f895 c01c 	ldrb.w	ip, [r5, #28]
 14c:	f01c 0c08 	ands.w	ip, ip, #8
 150:	f000 80d6 	beq.w	300 <ArtNetNode::HandleDmx()+0x300>
 154:	2301      	movs	r3, #1
 156:	9300      	str	r3, [sp, #0]
 158:	9206      	str	r2, [sp, #24]
 15a:	4673      	mov	r3, lr
 15c:	9104      	str	r1, [sp, #16]
 15e:	47d8      	blx	fp
 160:	7feb      	ldrb	r3, [r5, #31]
 162:	9904      	ldr	r1, [sp, #16]
 164:	9a06      	ldr	r2, [sp, #24]
 166:	b963      	cbnz	r3, 182 <ArtNetNode::HandleDmx()+0x182>
 168:	f8d9 0bdc 	ldr.w	r0, [r9, #3036]	@ 0xbdc
 16c:	6803      	ldr	r3, [r0, #0]
 16e:	689b      	ldr	r3, [r3, #8]
 170:	4798      	blx	r3
 172:	9b03      	ldr	r3, [sp, #12]
 174:	9904      	ldr	r1, [sp, #16]
 176:	f04f 0201 	mov.w	r2, #1
 17a:	f883 213f 	strb.w	r2, [r3, #319]	@ 0x13f
 17e:	77ea      	strb	r2, [r5, #31]
 180:	9a06      	ldr	r2, [sp, #24]
 182:	9803      	ldr	r0, [sp, #12]
 184:	f890 3142 	ldrb.w	r3, [r0, #322]	@ 0x142
 188:	f043 0302 	orr.w	r3, r3, #2
 18c:	f880 3142 	strb.w	r3, [r0, #322]	@ 0x142
 190:	e756      	b.n	40 <ArtNetNode::HandleDmx()+0x40>
 192:	45f4      	cmp	ip, lr
 194:	f000 80c5 	beq.w	322 <ArtNetNode::HandleDmx()+0x322>
 198:	b009      	add	sp, #36	@ 0x24
 19a:	e8bd 8ff0 	ldmia.w	sp!, {r4, r5, r6, r7, r8, r9, sl, fp, pc}
 19e:	f89a e00d 	ldrb.w	lr, [sl, #13]
 1a2:	f8b5 b008 	ldrh.w	fp, [r5, #8]
 1a6:	f1bc 0f00 	cmp.w	ip, #0
 1aa:	d139      	bne.n	220 <ArtNetNode::HandleDmx()+0x220>
 1ac:	45de      	cmp	lr, fp
 1ae:	f000 81db 	beq.w	568 <ArtNetNode::HandleDmx()+0x568>
 1b2:	f8b5 c014 	ldrh.w	ip, [r5, #20]
 1b6:	45f4      	cmp	ip, lr
 1b8:	d0ee      	beq.n	198 <ArtNetNode::HandleDmx()+0x198>
 1ba:	6128      	str	r0, [r5, #16]
 1bc:	9b03      	ldr	r3, [sp, #12]
 1be:	f8d9 0bd0 	ldr.w	r0, [r9, #3024]	@ 0xbd0
 1c2:	60e8      	str	r0, [r5, #12]
 1c4:	f893 013e 	ldrb.w	r0, [r3, #318]	@ 0x13e
 1c8:	f89a c00d 	ldrb.w	ip, [sl, #13]
 1cc:	f8a5 c014 	strh.w	ip, [r5, #20]
 1d0:	2800      	cmp	r0, #0
 1d2:	f000 80a1 	beq.w	318 <ArtNetNode::HandleDmx()+0x318>
 1d6:	9b04      	ldr	r3, [sp, #16]
 1d8:	f043 0308 	orr.w	r3, r3, #8
 1dc:	772b      	strb	r3, [r5, #28]
 1de:	9b05      	ldr	r3, [sp, #20]
 1e0:	f10a 0012 	add.w	r0, sl, #18
 1e4:	f206 2c01 	addw	ip, r6, #513	@ 0x201
 1e8:	2b00      	cmp	r3, #0
 1ea:	f000 80e6 	beq.w	3ba <ArtNetNode::HandleDmx()+0x3ba>
 1ee:	f103 0b12 	add.w	fp, r3, #18
 1f2:	44d3      	add	fp, sl
 1f4:	4603      	mov	r3, r0
 1f6:	f813 eb01 	ldrb.w	lr, [r3], #1
 1fa:	f80c eb01 	strb.w	lr, [ip], #1
 1fe:	459b      	cmp	fp, r3
 200:	d1f9      	bne.n	1f6 <ArtNetNode::HandleDmx()+0x1f6>
 202:	9b05      	ldr	r3, [sp, #20]
 204:	f8c6 3601 	str.w	r3, [r6, #1537]	@ 0x601
 208:	9b06      	ldr	r3, [sp, #24]
 20a:	2b00      	cmp	r3, #0
 20c:	f000 80bd 	beq.w	38a <ArtNetNode::HandleDmx()+0x38a>
 210:	4613      	mov	r3, r2
 212:	f810 cb01 	ldrb.w	ip, [r0], #1
 216:	f803 cb01 	strb.w	ip, [r3], #1
 21a:	4583      	cmp	fp, r0
 21c:	d1f9      	bne.n	212 <ArtNetNode::HandleDmx()+0x212>
 21e:	e786      	b.n	12e <ArtNetNode::HandleDmx()+0x12e>
 220:	4584      	cmp	ip, r0
 222:	d033      	beq.n	28c <ArtNetNode::HandleDmx()+0x28c>
 224:	45de      	cmp	lr, fp
 226:	d1b7      	bne.n	198 <ArtNetNode::HandleDmx()+0x198>
 228:	9b03      	ldr	r3, [sp, #12]
 22a:	f8d9 0bd0 	ldr.w	r0, [r9, #3024]	@ 0xbd0
 22e:	f893 c13e 	ldrb.w	ip, [r3, #318]	@ 0x13e
 232:	6028      	str	r0, [r5, #0]
 234:	f1bc 0f00 	cmp.w	ip, #0
 238:	d103      	bne.n	242 <ArtNetNode::HandleDmx()+0x242>
 23a:	f240 1001 	movw	r0, #257	@ 0x101
 23e:	f8a3 013e 	strh.w	r0, [r3, #318]	@ 0x13e
 242:	9b04      	ldr	r3, [sp, #16]
 244:	f043 0308 	orr.w	r3, r3, #8
 248:	772b      	strb	r3, [r5, #28]
 24a:	9b05      	ldr	r3, [sp, #20]
 24c:	f10a 0012 	add.w	r0, sl, #18
 250:	f106 0c01 	add.w	ip, r6, #1
 254:	2b00      	cmp	r3, #0
 256:	f000 80b0 	beq.w	3ba <ArtNetNode::HandleDmx()+0x3ba>
 25a:	f103 0b12 	add.w	fp, r3, #18
 25e:	44d3      	add	fp, sl
 260:	4603      	mov	r3, r0
 262:	f813 eb01 	ldrb.w	lr, [r3], #1
 266:	f80c eb01 	strb.w	lr, [ip], #1
 26a:	455b      	cmp	r3, fp
 26c:	d1f9      	bne.n	262 <ArtNetNode::HandleDmx()+0x262>
 26e:	9b05      	ldr	r3, [sp, #20]
 270:	f8c6 3601 	str.w	r3, [r6, #1537]	@ 0x601
 274:	9b06      	ldr	r3, [sp, #24]
 276:	2b00      	cmp	r3, #0
 278:	f000 81bd 	beq.w	5f6 <ArtNetNode::HandleDmx()+0x5f6>
 27c:	4613      	mov	r3, r2
 27e:	f810 cb01 	ldrb.w	ip, [r0], #1
 282:	f803 cb01 	strb.w	ip, [r3], #1
 286:	4558      	cmp	r0, fp
 288:	d1f9      	bne.n	27e <ArtNetNode::HandleDmx()+0x27e>
 28a:	e750      	b.n	12e <ArtNetNode::HandleDmx()+0x12e>
 28c:	45de      	cmp	lr, fp
 28e:	f000 8120 	beq.w	4d2 <ArtNetNode::HandleDmx()+0x4d2>
 292:	8aa8      	ldrh	r0, [r5, #20]
 294:	4570      	cmp	r0, lr
 296:	f040 81fa 	bne.w	68e <ArtNetNode::HandleDmx()+0x68e>
 29a:	9b03      	ldr	r3, [sp, #12]
 29c:	f8d9 0bd0 	ldr.w	r0, [r9, #3024]	@ 0xbd0
 2a0:	f893 c13e 	ldrb.w	ip, [r3, #318]	@ 0x13e
 2a4:	60e8      	str	r0, [r5, #12]
 2a6:	f1bc 0f00 	cmp.w	ip, #0
 2aa:	d103      	bne.n	2b4 <ArtNetNode::HandleDmx()+0x2b4>
 2ac:	f240 1001 	movw	r0, #257	@ 0x101
 2b0:	f8a3 013e 	strh.w	r0, [r3, #318]	@ 0x13e
 2b4:	9b04      	ldr	r3, [sp, #16]
 2b6:	f043 0308 	orr.w	r3, r3, #8
 2ba:	772b      	strb	r3, [r5, #28]
 2bc:	9b05      	ldr	r3, [sp, #20]
 2be:	f10a 0012 	add.w	r0, sl, #18
 2c2:	f206 2c01 	addw	ip, r6, #513	@ 0x201
 2c6:	2b00      	cmp	r3, #0
 2c8:	d077      	beq.n	3ba <ArtNetNode::HandleDmx()+0x3ba>
 2ca:	f103 0b12 	add.w	fp, r3, #18
 2ce:	44d3      	add	fp, sl
 2d0:	4603      	mov	r3, r0
 2d2:	f813 eb01 	ldrb.w	lr, [r3], #1
 2d6:	f80c eb01 	strb.w	lr, [ip], #1
 2da:	459b      	cmp	fp, r3
 2dc:	d1f9      	bne.n	2d2 <ArtNetNode::HandleDmx()+0x2d2>
 2de:	9b05      	ldr	r3, [sp, #20]
 2e0:	f8c6 3601 	str.w	r3, [r6, #1537]	@ 0x601
 2e4:	9b06      	ldr	r3, [sp, #24]
 2e6:	2b00      	cmp	r3, #0
 2e8:	f000 8131 	beq.w	54e <ArtNetNode::HandleDmx()+0x54e>
 2ec:	4613      	mov	r3, r2
 2ee:	f810 cb01 	ldrb.w	ip, [r0], #1
 2f2:	f803 cb01 	strb.w	ip, [r3], #1
 2f6:	4583      	cmp	fp, r0
 2f8:	d1f9      	bne.n	2ee <ArtNetNode::HandleDmx()+0x2ee>
 2fa:	e718      	b.n	12e <ArtNetNode::HandleDmx()+0x12e>
 2fc:	00000400 	.word	0x00000400
 300:	4673      	mov	r3, lr
 302:	9206      	str	r2, [sp, #24]
 304:	9104      	str	r1, [sp, #16]
 306:	f8cd c000 	str.w	ip, [sp]
 30a:	47d8      	blx	fp
 30c:	2301      	movs	r3, #1
 30e:	9904      	ldr	r1, [sp, #16]
 310:	9a06      	ldr	r2, [sp, #24]
 312:	f885 3020 	strb.w	r3, [r5, #32]
 316:	e734      	b.n	182 <ArtNetNode::HandleDmx()+0x182>
 318:	f240 1001 	movw	r0, #257	@ 0x101
 31c:	f8a3 013e 	strh.w	r0, [r3, #318]	@ 0x13e
 320:	e759      	b.n	1d6 <ArtNetNode::HandleDmx()+0x1d6>
 322:	f8b5 c014 	ldrh.w	ip, [r5, #20]
 326:	f89a 000d 	ldrb.w	r0, [sl, #13]
 32a:	4584      	cmp	ip, r0
 32c:	f040 81b5 	bne.w	69a <ArtNetNode::HandleDmx()+0x69a>
 330:	9b03      	ldr	r3, [sp, #12]
 332:	f8d9 0bd0 	ldr.w	r0, [r9, #3024]	@ 0xbd0
 336:	f893 c13e 	ldrb.w	ip, [r3, #318]	@ 0x13e
 33a:	60e8      	str	r0, [r5, #12]
 33c:	f1bc 0f00 	cmp.w	ip, #0
 340:	f000 813f 	beq.w	5c2 <ArtNetNode::HandleDmx()+0x5c2>
 344:	9b04      	ldr	r3, [sp, #16]
 346:	f043 0308 	orr.w	r3, r3, #8
 34a:	772b      	strb	r3, [r5, #28]
 34c:	9b05      	ldr	r3, [sp, #20]
 34e:	f10a 0012 	add.w	r0, sl, #18
 352:	f206 2c01 	addw	ip, r6, #513	@ 0x201
 356:	b383      	cbz	r3, 3ba <ArtNetNode::HandleDmx()+0x3ba>
 358:	f103 0b12 	add.w	fp, r3, #18
 35c:	44d3      	add	fp, sl
 35e:	4603      	mov	r3, r0
 360:	f813 eb01 	ldrb.w	lr, [r3], #1
 364:	f80c eb01 	strb.w	lr, [ip], #1
 368:	459b      	cmp	fp, r3
 36a:	d1f9      	bne.n	360 <ArtNetNode::HandleDmx()+0x360>
 36c:	9b05      	ldr	r3, [sp, #20]
 36e:	f8c6 3601 	str.w	r3, [r6, #1537]	@ 0x601
 372:	9b06      	ldr	r3, [sp, #24]
 374:	2b00      	cmp	r3, #0
 376:	f000 8158 	beq.w	62a <ArtNetNode::HandleDmx()+0x62a>
 37a:	4613      	mov	r3, r2
 37c:	f810 cb01 	ldrb.w	ip, [r0], #1
 380:	f803 cb01 	strb.w	ip, [r3], #1
 384:	4583      	cmp	fp, r0
 386:	d1f9      	bne.n	37c <ArtNetNode::HandleDmx()+0x37c>
 388:	e6d1      	b.n	12e <ArtNetNode::HandleDmx()+0x12e>
 38a:	4633      	mov	r3, r6
 38c:	f813 0f01 	ldrb.w	r0, [r3, #1]!
 390:	f893 c200 	ldrb.w	ip, [r3, #512]	@ 0x200
 394:	4560      	cmp	r0, ip
 396:	bf38      	it	cc
 398:	4660      	movcc	r0, ip
 39a:	42bb      	cmp	r3, r7
 39c:	f883 0400 	strb.w	r0, [r3, #1024]	@ 0x400
 3a0:	d1f4      	bne.n	38c <ArtNetNode::HandleDmx()+0x38c>
 3a2:	e6c4      	b.n	12e <ArtNetNode::HandleDmx()+0x12e>
 3a4:	9805      	ldr	r0, [sp, #20]
 3a6:	f8d9 3bd0 	ldr.w	r3, [r9, #3024]	@ 0xbd0
 3aa:	60eb      	str	r3, [r5, #12]
 3ac:	f206 2e01 	addw	lr, r6, #513	@ 0x201
 3b0:	f10a 0312 	add.w	r3, sl, #18
 3b4:	2800      	cmp	r0, #0
 3b6:	f040 8109 	bne.w	5cc <ArtNetNode::HandleDmx()+0x5cc>
 3ba:	9b05      	ldr	r3, [sp, #20]
 3bc:	f8c6 3601 	str.w	r3, [r6, #1537]	@ 0x601
 3c0:	469e      	mov	lr, r3
 3c2:	e6b6      	b.n	132 <ArtNetNode::HandleDmx()+0x132>
 3c4:	f1bc 0f00 	cmp.w	ip, #0
 3c8:	f000 813c 	beq.w	644 <ArtNetNode::HandleDmx()+0x644>
 3cc:	45f4      	cmp	ip, lr
 3ce:	d034      	beq.n	43a <ArtNetNode::HandleDmx()+0x43a>
 3d0:	f8c5 e004 	str.w	lr, [r5, #4]
 3d4:	9b03      	ldr	r3, [sp, #12]
 3d6:	f8d9 0bd0 	ldr.w	r0, [r9, #3024]	@ 0xbd0
 3da:	6028      	str	r0, [r5, #0]
 3dc:	f893 013e 	ldrb.w	r0, [r3, #318]	@ 0x13e
 3e0:	f89a c00d 	ldrb.w	ip, [sl, #13]
 3e4:	f8a5 c008 	strh.w	ip, [r5, #8]
 3e8:	b918      	cbnz	r0, 3f2 <ArtNetNode::HandleDmx()+0x3f2>
 3ea:	f240 1001 	movw	r0, #257	@ 0x101
 3ee:	f8a3 013e 	strh.w	r0, [r3, #318]	@ 0x13e
 3f2:	9b04      	ldr	r3, [sp, #16]
 3f4:	f043 0308 	orr.w	r3, r3, #8
 3f8:	772b      	strb	r3, [r5, #28]
 3fa:	9b05      	ldr	r3, [sp, #20]
 3fc:	f10a 0012 	add.w	r0, sl, #18
 400:	f106 0c01 	add.w	ip, r6, #1
 404:	2b00      	cmp	r3, #0
 406:	d0d8      	beq.n	3ba <ArtNetNode::HandleDmx()+0x3ba>
 408:	f103 0b12 	add.w	fp, r3, #18
 40c:	44d3      	add	fp, sl
 40e:	4603      	mov	r3, r0
 410:	f813 eb01 	ldrb.w	lr, [r3], #1
 414:	f80c eb01 	strb.w	lr, [ip], #1
 418:	459b      	cmp	fp, r3
 41a:	d1f9      	bne.n	410 <ArtNetNode::HandleDmx()+0x410>
 41c:	9b05      	ldr	r3, [sp, #20]
 41e:	f8c6 3601 	str.w	r3, [r6, #1537]	@ 0x601
 422:	9b06      	ldr	r3, [sp, #24]
 424:	2b00      	cmp	r3, #0
 426:	f000 8085 	beq.w	534 <ArtNetNode::HandleDmx()+0x534>
 42a:	4613      	mov	r3, r2
 42c:	f810 cb01 	ldrb.w	ip, [r0], #1
 430:	f803 cb01 	strb.w	ip, [r3], #1
 434:	4583      	cmp	fp, r0
 436:	d1f9      	bne.n	42c <ArtNetNode::HandleDmx()+0x42c>
 438:	e679      	b.n	12e <ArtNetNode::HandleDmx()+0x12e>
 43a:	f89a 000d 	ldrb.w	r0, [sl, #13]
 43e:	f8b5 e014 	ldrh.w	lr, [r5, #20]
 442:	4586      	cmp	lr, r0
 444:	d0ae      	beq.n	3a4 <ArtNetNode::HandleDmx()+0x3a4>
 446:	f8b5 e008 	ldrh.w	lr, [r5, #8]
 44a:	4586      	cmp	lr, r0
 44c:	f43f aea4 	beq.w	198 <ArtNetNode::HandleDmx()+0x198>
 450:	f8c5 c004 	str.w	ip, [r5, #4]
 454:	9b03      	ldr	r3, [sp, #12]
 456:	f8d9 0bd0 	ldr.w	r0, [r9, #3024]	@ 0xbd0
 45a:	6028      	str	r0, [r5, #0]
 45c:	f893 013e 	ldrb.w	r0, [r3, #318]	@ 0x13e
 460:	f89a c00d 	ldrb.w	ip, [sl, #13]
 464:	f8a5 c008 	strh.w	ip, [r5, #8]
 468:	b918      	cbnz	r0, 472 <ArtNetNode::HandleDmx()+0x472>
 46a:	f240 1001 	movw	r0, #257	@ 0x101
 46e:	f8a3 013e 	strh.w	r0, [r3, #318]	@ 0x13e
 472:	9b04      	ldr	r3, [sp, #16]
 474:	f043 0308 	orr.w	r3, r3, #8
 478:	772b      	strb	r3, [r5, #28]
 47a:	9b05      	ldr	r3, [sp, #20]
 47c:	f10a 0012 	add.w	r0, sl, #18
 480:	f106 0c01 	add.w	ip, r6, #1
 484:	2b00      	cmp	r3, #0
 486:	d098      	beq.n	3ba <ArtNetNode::HandleDmx()+0x3ba>
 488:	f103 0b12 	add.w	fp, r3, #18
 48c:	44d3      	add	fp, sl
 48e:	4603      	mov	r3, r0
 490:	f813 eb01 	ldrb.w	lr, [r3], #1
 494:	f80c eb01 	strb.w	lr, [ip], #1
 498:	455b      	cmp	r3, fp
 49a:	d1f9      	bne.n	490 <ArtNetNode::HandleDmx()+0x490>
 49c:	9b05      	ldr	r3, [sp, #20]
 49e:	f8c6 3601 	str.w	r3, [r6, #1537]	@ 0x601
 4a2:	9b06      	ldr	r3, [sp, #24]
 4a4:	2b00      	cmp	r3, #0
 4a6:	d07f      	beq.n	5a8 <ArtNetNode::HandleDmx()+0x5a8>
 4a8:	4613      	mov	r3, r2
 4aa:	f810 cb01 	ldrb.w	ip, [r0], #1
 4ae:	f803 cb01 	strb.w	ip, [r3], #1
 4b2:	4558      	cmp	r0, fp
 4b4:	d1f9      	bne.n	4aa <ArtNetNode::HandleDmx()+0x4aa>
 4b6:	e63a      	b.n	12e <ArtNetNode::HandleDmx()+0x12e>
 4b8:	4633      	mov	r3, r6
 4ba:	f813 0f01 	ldrb.w	r0, [r3, #1]!
 4be:	f893 c200 	ldrb.w	ip, [r3, #512]	@ 0x200
 4c2:	4560      	cmp	r0, ip
 4c4:	bf38      	it	cc
 4c6:	4660      	movcc	r0, ip
 4c8:	429f      	cmp	r7, r3
 4ca:	f883 0400 	strb.w	r0, [r3, #1024]	@ 0x400
 4ce:	d1f4      	bne.n	4ba <ArtNetNode::HandleDmx()+0x4ba>
 4d0:	e62d      	b.n	12e <ArtNetNode::HandleDmx()+0x12e>
 4d2:	9b03      	ldr	r3, [sp, #12]
 4d4:	f8d9 0bd0 	ldr.w	r0, [r9, #3024]	@ 0xbd0
 4d8:	f893 c13e 	ldrb.w	ip, [r3, #318]	@ 0x13e
 4dc:	6028      	str	r0, [r5, #0]
 4de:	f1bc 0f00 	cmp.w	ip, #0
 4e2:	d103      	bne.n	4ec <ArtNetNode::HandleDmx()+0x4ec>
 4e4:	f240 1001 	movw	r0, #257	@ 0x101
 4e8:	f8a3 013e 	strh.w	r0, [r3, #318]	@ 0x13e
 4ec:	9b04      	ldr	r3, [sp, #16]
 4ee:	f043 0308 	orr.w	r3, r3, #8
 4f2:	772b      	strb	r3, [r5, #28]
 4f4:	9b05      	ldr	r3, [sp, #20]
 4f6:	f10a 0012 	add.w	r0, sl, #18
 4fa:	f106 0c01 	add.w	ip, r6, #1
 4fe:	2b00      	cmp	r3, #0
 500:	f43f af5b 	beq.w	3ba <ArtNetNode::HandleDmx()+0x3ba>
 504:	f103 0e12 	add.w	lr, r3, #18
 508:	44d6      	add	lr, sl
 50a:	4603      	mov	r3, r0
 50c:	f813 bb01 	ldrb.w	fp, [r3], #1
 510:	f80c bb01 	strb.w	fp, [ip], #1
 514:	4573      	cmp	r3, lr
 516:	d1f9      	bne.n	50c <ArtNetNode::HandleDmx()+0x50c>
 518:	9b05      	ldr	r3, [sp, #20]
 51a:	f8c6 3601 	str.w	r3, [r6, #1537]	@ 0x601
 51e:	9b06      	ldr	r3, [sp, #24]
 520:	2b00      	cmp	r3, #0
 522:	d075      	beq.n	610 <ArtNetNode::HandleDmx()+0x610>
 524:	4613      	mov	r3, r2
 526:	f810 cb01 	ldrb.w	ip, [r0], #1
 52a:	f803 cb01 	strb.w	ip, [r3], #1
 52e:	4570      	cmp	r0, lr
 530:	d1f9      	bne.n	526 <ArtNetNode::HandleDmx()+0x526>
 532:	e5fc      	b.n	12e <ArtNetNode::HandleDmx()+0x12e>
 534:	4633      	mov	r3, r6
 536:	f813 0f01 	ldrb.w	r0, [r3, #1]!
 53a:	f893 c200 	ldrb.w	ip, [r3, #512]	@ 0x200
 53e:	4560      	cmp	r0, ip
 540:	bf38      	it	cc
 542:	4660      	movcc	r0, ip
 544:	429f      	cmp	r7, r3
 546:	f883 0400 	strb.w	r0, [r3, #1024]	@ 0x400
 54a:	d1f4      	bne.n	536 <ArtNetNode::HandleDmx()+0x536>
 54c:	e5ef      	b.n	12e <ArtNetNode::HandleDmx()+0x12e>
 54e:	4633      	mov	r3, r6
 550:	f813 0f01 	ldrb.w	r0, [r3, #1]!
 554:	f893 c200 	ldrb.w	ip, [r3, #512]	@ 0x200
 558:	4560      	cmp	r0, ip
 55a:	bf38      	it	cc
 55c:	4660      	movcc	r0, ip
 55e:	429f      	cmp	r7, r3
 560:	f883 0400 	strb.w	r0, [r3, #1024]	@ 0x400
 564:	d1f4      	bne.n	550 <ArtNetNode::HandleDmx()+0x550>
 566:	e5e2      	b.n	12e <ArtNetNode::HandleDmx()+0x12e>
 568:	9805      	ldr	r0, [sp, #20]
 56a:	f8d9 3bd0 	ldr.w	r3, [r9, #3024]	@ 0xbd0
 56e:	602b      	str	r3, [r5, #0]
 570:	f106 0e01 	add.w	lr, r6, #1
 574:	f10a 0312 	add.w	r3, sl, #18
 578:	2800      	cmp	r0, #0
 57a:	f43f af1e 	beq.w	3ba <ArtNetNode::HandleDmx()+0x3ba>
 57e:	f100 0c12 	add.w	ip, r0, #18
 582:	44d4      	add	ip, sl
 584:	4618      	mov	r0, r3
 586:	f810 bb01 	ldrb.w	fp, [r0], #1
 58a:	f80e bb01 	strb.w	fp, [lr], #1
 58e:	4560      	cmp	r0, ip
 590:	d1f9      	bne.n	586 <ArtNetNode::HandleDmx()+0x586>
 592:	9805      	ldr	r0, [sp, #20]
 594:	f8c6 0601 	str.w	r0, [r6, #1537]	@ 0x601
 598:	4610      	mov	r0, r2
 59a:	f813 eb01 	ldrb.w	lr, [r3], #1
 59e:	f800 eb01 	strb.w	lr, [r0], #1
 5a2:	4563      	cmp	r3, ip
 5a4:	d1f9      	bne.n	59a <ArtNetNode::HandleDmx()+0x59a>
 5a6:	e5c2      	b.n	12e <ArtNetNode::HandleDmx()+0x12e>
 5a8:	4633      	mov	r3, r6
 5aa:	f813 0f01 	ldrb.w	r0, [r3, #1]!
 5ae:	f893 c200 	ldrb.w	ip, [r3, #512]	@ 0x200
 5b2:	4560      	cmp	r0, ip
 5b4:	bf38      	it	cc
 5b6:	4660      	movcc	r0, ip
 5b8:	42bb      	cmp	r3, r7
 5ba:	f883 0400 	strb.w	r0, [r3, #1024]	@ 0x400
 5be:	d1f4      	bne.n	5aa <ArtNetNode::HandleDmx()+0x5aa>
 5c0:	e5b5      	b.n	12e <ArtNetNode::HandleDmx()+0x12e>
 5c2:	f240 1001 	movw	r0, #257	@ 0x101
 5c6:	f8a3 013e 	strh.w	r0, [r3, #318]	@ 0x13e
 5ca:	e6bb      	b.n	344 <ArtNetNode::HandleDmx()+0x344>
 5cc:	f100 0c12 	add.w	ip, r0, #18
 5d0:	44d4      	add	ip, sl
 5d2:	4618      	mov	r0, r3
 5d4:	f810 bb01 	ldrb.w	fp, [r0], #1
 5d8:	f80e bb01 	strb.w	fp, [lr], #1
 5dc:	4584      	cmp	ip, r0
 5de:	d1f9      	bne.n	5d4 <ArtNetNode::HandleDmx()+0x5d4>
 5e0:	9805      	ldr	r0, [sp, #20]
 5e2:	f8c6 0601 	str.w	r0, [r6, #1537]	@ 0x601
 5e6:	4610      	mov	r0, r2
 5e8:	f813 eb01 	ldrb.w	lr, [r3], #1
 5ec:	f800 eb01 	strb.w	lr, [r0], #1
 5f0:	459c      	cmp	ip, r3
 5f2:	d1f9      	bne.n	5e8 <ArtNetNode::HandleDmx()+0x5e8>
 5f4:	e59b      	b.n	12e <ArtNetNode::HandleDmx()+0x12e>
 5f6:	4633      	mov	r3, r6
 5f8:	f813 0f01 	ldrb.w	r0, [r3, #1]!
 5fc:	f893 c200 	ldrb.w	ip, [r3, #512]	@ 0x200
 600:	4560      	cmp	r0, ip
 602:	bf38      	it	cc
 604:	4660      	movcc	r0, ip
 606:	42bb      	cmp	r3, r7
 608:	f883 0400 	strb.w	r0, [r3, #1024]	@ 0x400
 60c:	d1f4      	bne.n	5f8 <ArtNetNode::HandleDmx()+0x5f8>
 60e:	e58e      	b.n	12e <ArtNetNode::HandleDmx()+0x12e>
 610:	4633      	mov	r3, r6
 612:	f813 0f01 	ldrb.w	r0, [r3, #1]!
 616:	f893 c200 	ldrb.w	ip, [r3, #512]	@ 0x200
 61a:	4560      	cmp	r0, ip
 61c:	bf38      	it	cc
 61e:	4660      	movcc	r0, ip
 620:	429f      	cmp	r7, r3
 622:	f883 0400 	strb.w	r0, [r3, #1024]	@ 0x400
 626:	d1f4      	bne.n	612 <ArtNetNode::HandleDmx()+0x612>
 628:	e581      	b.n	12e <ArtNetNode::HandleDmx()+0x12e>
 62a:	4633      	mov	r3, r6
 62c:	f813 0f01 	ldrb.w	r0, [r3, #1]!
 630:	f893 c200 	ldrb.w	ip, [r3, #512]	@ 0x200
 634:	4560      	cmp	r0, ip
 636:	bf38      	it	cc
 638:	4660      	movcc	r0, ip
 63a:	42bb      	cmp	r3, r7
 63c:	f883 0400 	strb.w	r0, [r3, #1024]	@ 0x400
 640:	d1f4      	bne.n	62c <ArtNetNode::HandleDmx()+0x62c>
 642:	e574      	b.n	12e <ArtNetNode::HandleDmx()+0x12e>
 644:	f8c5 e004 	str.w	lr, [r5, #4]
 648:	f8d9 3bd0 	ldr.w	r3, [r9, #3024]	@ 0xbd0
 64c:	602b      	str	r3, [r5, #0]
 64e:	9805      	ldr	r0, [sp, #20]
 650:	f89a 300d 	ldrb.w	r3, [sl, #13]
 654:	812b      	strh	r3, [r5, #8]
 656:	f106 0c01 	add.w	ip, r6, #1
 65a:	f10a 0312 	add.w	r3, sl, #18
 65e:	2800      	cmp	r0, #0
 660:	f43f aeab 	beq.w	3ba <ArtNetNode::HandleDmx()+0x3ba>
 664:	3012      	adds	r0, #18
 666:	eb0a 0b00 	add.w	fp, sl, r0
 66a:	4618      	mov	r0, r3
 66c:	f810 eb01 	ldrb.w	lr, [r0], #1
 670:	f80c eb01 	strb.w	lr, [ip], #1
 674:	4583      	cmp	fp, r0
 676:	d1f9      	bne.n	66c <ArtNetNode::HandleDmx()+0x66c>
 678:	9805      	ldr	r0, [sp, #20]
 67a:	f8c6 0601 	str.w	r0, [r6, #1537]	@ 0x601
 67e:	4610      	mov	r0, r2
 680:	f813 cb01 	ldrb.w	ip, [r3], #1
 684:	f800 cb01 	strb.w	ip, [r0], #1
 688:	459b      	cmp	fp, r3
 68a:	d1f9      	bne.n	680 <ArtNetNode::HandleDmx()+0x680>
 68c:	e54f      	b.n	12e <ArtNetNode::HandleDmx()+0x12e>
 68e:	4804      	ldr	r0, [pc, #16]	@ (6a0 <ArtNetNode::HandleDmx()+0x6a0>)
 690:	b009      	add	sp, #36	@ 0x24
 692:	e8bd 4ff0 	ldmia.w	sp!, {r4, r5, r6, r7, r8, r9, sl, fp, lr}
 696:	f7ff bffe 	b.w	0 <puts>
 69a:	4802      	ldr	r0, [pc, #8]	@ (6a4 <ArtNetNode::HandleDmx()+0x6a4>)
 69c:	e7f8      	b.n	690 <ArtNetNode::HandleDmx()+0x690>
 69e:	bf00      	nop
 6a0:	00000030 	.word	0x00000030
 6a4:	00000000 	.word	0x00000000

artnetnodehandleipprog.o:     file format elf32-littlearm


Disassembly of section .text.memcpy.isra.0:

00000000 <memcpy.isra.0>:
   0:	440a      	add	r2, r1
   2:	4291      	cmp	r1, r2
   4:	d100      	bne.n	8 <memcpy.isra.0+0x8>
   6:	4770      	bx	lr
   8:	f811 3b01 	ldrb.w	r3, [r1], #1
   c:	f800 3b01 	strb.w	r3, [r0], #1
  10:	e7f7      	b.n	2 <memcpy.isra.0+0x2>

Disassembly of section .text.memcmp:

00000000 <memcmp>:
   0:	b510      	push	{r4, lr}
   2:	3901      	subs	r1, #1
   4:	4402      	add	r2, r0
   6:	4290      	cmp	r0, r2
   8:	d101      	bne.n	e <memcmp+0xe>
   a:	2000      	movs	r0, #0
   c:	e005      	b.n	1a <memcmp+0x1a>
   e:	7803      	ldrb	r3, [r0, #0]
  10:	f811 4f01 	ldrb.w	r4, [r1, #1]!
  14:	42a3      	cmp	r3, r4
  16:	d001      	beq.n	1c <memcmp+0x1c>
  18:	1b18      	subs	r0, r3, r4
  1a:	bd10      	pop	{r4, pc}
  1c:	3001      	adds	r0, #1
  1e:	e7f2      	b.n	6 <memcmp+0x6>

Disassembly of section .text._ZN10ArtNetNode12HandleIpProgEv:

00000000 <ArtNetNode::HandleIpProg()>:
   0:	e92d 4ff0 	stmdb	sp!, {r4, r5, r6, r7, r8, r9, sl, fp, lr}
   4:	f8d0 4bc8 	ldr.w	r4, [r0, #3016]	@ 0xbc8
   8:	4e6a      	ldr	r6, [pc, #424]	@ (1b4 <ArtNetNode::HandleIpProg()+0x1b4>)
   a:	f894 800e 	ldrb.w	r8, [r4, #14]
   e:	7eb7      	ldrb	r7, [r6, #26]
  10:	2300      	movs	r3, #0
  12:	7223      	strb	r3, [r4, #8]
  14:	f06f 0306 	mvn.w	r3, #6
  18:	7263      	strb	r3, [r4, #9]
  1a:	f008 03c0 	and.w	r3, r8, #192	@ 0xc0
  1e:	2bc0      	cmp	r3, #192	@ 0xc0
  20:	b085      	sub	sp, #20
  22:	4605      	mov	r5, r0
  24:	f3c7 0740 	ubfx	r7, r7, #1, #1
  28:	d103      	bne.n	32 <ArtNetNode::HandleIpProg()+0x32>
  2a:	4b63      	ldr	r3, [pc, #396]	@ (1b8 <ArtNetNode::HandleIpProg()+0x1b8>)
  2c:	6818      	ldr	r0, [r3, #0]
  2e:	f7ff fffe 	bl	0 <Network::EnableDhcp()>
  32:	f008 0388 	and.w	r3, r8, #136	@ 0x88
  36:	2b88      	cmp	r3, #136	@ 0x88
  38:	d104      	bne.n	44 <ArtNetNode::HandleIpProg()+0x44>
  3a:	4b5f      	ldr	r3, [pc, #380]	@ (1b8 <ArtNetNode::HandleIpProg()+0x1b8>)
  3c:	2100      	movs	r1, #0
  3e:	6818      	ldr	r0, [r3, #0]
  40:	f7ff fffe 	bl	0 <Network::SetIp(unsigned long)>
  44:	f008 0384 	and.w	r3, r8, #132	@ 0x84
  48:	2b84      	cmp	r3, #132	@ 0x84
  4a:	f8df a170 	ldr.w	sl, [pc, #368]	@ 1bc <ArtNetNode::HandleIpProg()+0x1bc>
  4e:	f104 0910 	add.w	r9, r4, #16
  52:	d10a      	bne.n	6a <ArtNetNode::HandleIpProg()+0x6a>
  54:	4649      	mov	r1, r9
  56:	4650      	mov	r0, sl
  58:	2204      	movs	r2, #4
  5a:	f7ff fffe 	bl	0 <ArtNetNode::HandleIpProg()>
  5e:	4b56      	ldr	r3, [pc, #344]	@ (1b8 <ArtNetNode::HandleIpProg()+0x1b8>)
  60:	f8da 1000 	ldr.w	r1, [sl]
  64:	6818      	ldr	r0, [r3, #0]
  66:	f7ff fffe 	bl	0 <Network::SetIp(unsigned long)>
  6a:	f008 0382 	and.w	r3, r8, #130	@ 0x82
  6e:	2b82      	cmp	r3, #130	@ 0x82
  70:	d10b      	bne.n	8a <ArtNetNode::HandleIpProg()+0x8a>
  72:	4852      	ldr	r0, [pc, #328]	@ (1bc <ArtNetNode::HandleIpProg()+0x1bc>)
  74:	f104 0114 	add.w	r1, r4, #20
  78:	2204      	movs	r2, #4
  7a:	f7ff fffe 	bl	0 <ArtNetNode::HandleIpProg()>
  7e:	4b4e      	ldr	r3, [pc, #312]	@ (1b8 <ArtNetNode::HandleIpProg()+0x1b8>)
  80:	f8da 1000 	ldr.w	r1, [sl]
  84:	6818      	ldr	r0, [r3, #0]
  86:	f7ff fffe 	bl	0 <Network::SetNetmask(unsigned long)>
  8a:	f008 0890 	and.w	r8, r8, #144	@ 0x90
  8e:	f1b8 0f90 	cmp.w	r8, #144	@ 0x90
  92:	d10b      	bne.n	ac <ArtNetNode::HandleIpProg()+0xac>
  94:	4849      	ldr	r0, [pc, #292]	@ (1bc <ArtNetNode::HandleIpProg()+0x1bc>)
  96:	f104 011a 	add.w	r1, r4, #26
  9a:	2204      	movs	r2, #4
  9c:	f7ff fffe 	bl	0 <ArtNetNode::HandleIpProg()>
  a0:	4b45      	ldr	r3, [pc, #276]	@ (1b8 <ArtNetNode::HandleIpProg()+0x1b8>)
  a2:	f8da 1000 	ldr.w	r1, [sl]
  a6:	6818      	ldr	r0, [r3, #0]
  a8:	f7ff fffe 	bl	0 <Network::SetGatewayIp(unsigned long)>
  ac:	7eb3      	ldrb	r3, [r6, #26]
  ae:	f8df b10c 	ldr.w	fp, [pc, #268]	@ 1bc <ArtNetNode::HandleIpProg()+0x1bc>
  b2:	f3c3 0340 	ubfx	r3, r3, #1, #1
  b6:	019b      	lsls	r3, r3, #6
  b8:	76a3      	strb	r3, [r4, #26]
  ba:	7eb3      	ldrb	r3, [r6, #26]
  bc:	f04f 0a00 	mov.w	sl, #0
  c0:	f3c3 0340 	ubfx	r3, r3, #1, #1
  c4:	405f      	eors	r7, r3
  c6:	2204      	movs	r2, #4
  c8:	6833      	ldr	r3, [r6, #0]
  ca:	f884 a01b 	strb.w	sl, [r4, #27]
  ce:	4659      	mov	r1, fp
  d0:	4648      	mov	r0, r9
  d2:	f8cb 3000 	str.w	r3, [fp]
  d6:	f7ff fffe 	bl	0 <ArtNetNode::HandleIpProg()>
  da:	2204      	movs	r2, #4
  dc:	4680      	mov	r8, r0
  de:	4659      	mov	r1, fp
  e0:	4648      	mov	r0, r9
  e2:	f7ff fffe 	bl	0 <ArtNetNode::HandleIpProg()>
  e6:	6873      	ldr	r3, [r6, #4]
  e8:	f8cb 3000 	str.w	r3, [fp]
  ec:	f104 0314 	add.w	r3, r4, #20
  f0:	2204      	movs	r2, #4
  f2:	4659      	mov	r1, fp
  f4:	4618      	mov	r0, r3
  f6:	9303      	str	r3, [sp, #12]
  f8:	f7ff fffe 	bl	0 <ArtNetNode::HandleIpProg()>
  fc:	9b03      	ldr	r3, [sp, #12]
  fe:	9002      	str	r0, [sp, #8]
 100:	2204      	movs	r2, #4
 102:	4618      	mov	r0, r3
 104:	4659      	mov	r1, fp
 106:	f7ff fffe 	bl	0 <ArtNetNode::HandleIpProg()>
 10a:	68b3      	ldr	r3, [r6, #8]
 10c:	f8cb 3000 	str.w	r3, [fp]
 110:	2204      	movs	r2, #4
 112:	4659      	mov	r1, fp
 114:	f104 001a 	add.w	r0, r4, #26
 118:	f7ff fffe 	bl	0 <ArtNetNode::HandleIpProg()>
 11c:	9b02      	ldr	r3, [sp, #8]
 11e:	ea48 0803 	orr.w	r8, r8, r3
 122:	ea58 0800 	orrs.w	r8, r8, r0
 126:	f04f 0204 	mov.w	r2, #4
 12a:	4659      	mov	r1, fp
 12c:	f104 001c 	add.w	r0, r4, #28
 130:	bf18      	it	ne
 132:	f047 0701 	orrne.w	r7, r7, #1
 136:	f7ff fffe 	bl	0 <ArtNetNode::HandleIpProg()>
 13a:	6832      	ldr	r2, [r6, #0]
 13c:	f884 a020 	strb.w	sl, [r4, #32]
 140:	f884 a021 	strb.w	sl, [r4, #33]	@ 0x21
 144:	f8d5 0bc4 	ldr.w	r0, [r5, #3012]	@ 0xbc4
 148:	f8d5 1bc8 	ldr.w	r1, [r5, #3016]	@ 0xbc8
 14c:	f8d5 3bcc 	ldr.w	r3, [r5, #3020]	@ 0xbcc
 150:	b12a      	cbz	r2, 15e <ArtNetNode::HandleIpProg()+0x15e>
 152:	f641 1236 	movw	r2, #6454	@ 0x1936
 156:	9200      	str	r2, [sp, #0]
 158:	2222      	movs	r2, #34	@ 0x22
 15a:	f7ff fffe 	bl	0 <net::udp_send(int, unsigned char const*, unsigned long, unsigned long, unsigned short)>
 15e:	b337      	cbz	r7, 1ae <ArtNetNode::HandleIpProg()+0x1ae>
 160:	f505 5480 	add.w	r4, r5, #4096	@ 0x1000
 164:	7eb3      	ldrb	r3, [r6, #26]
 166:	f894 2828 	ldrb.w	r2, [r4, #2088]	@ 0x828
 16a:	f003 0302 	and.w	r3, r3, #2
 16e:	f022 0202 	bic.w	r2, r2, #2
 172:	4313      	orrs	r3, r2
 174:	f505 50ba 	add.w	r0, r5, #5952	@ 0x1740
 178:	f884 3828 	strb.w	r3, [r4, #2088]	@ 0x828
 17c:	2204      	movs	r2, #4
 17e:	4649      	mov	r1, r9
 180:	301e      	adds	r0, #30
 182:	f7ff fffe 	bl	0 <ArtNetNode::HandleIpProg()>
 186:	f505 50c1 	add.w	r0, r5, #6176	@ 0x1820
 18a:	2204      	movs	r2, #4
 18c:	4649      	mov	r1, r9
 18e:	3003      	adds	r0, #3
 190:	f7ff fffe 	bl	0 <ArtNetNode::HandleIpProg()>
 194:	f894 313a 	ldrb.w	r3, [r4, #314]	@ 0x13a
 198:	b14b      	cbz	r3, 1ae <ArtNetNode::HandleIpProg()+0x1ae>
 19a:	2300      	movs	r3, #0
 19c:	f8d5 2bcc 	ldr.w	r2, [r5, #3020]	@ 0xbcc
 1a0:	4619      	mov	r1, r3
 1a2:	4628      	mov	r0, r5
 1a4:	b005      	add	sp, #20
 1a6:	e8bd 4ff0 	ldmia.w	sp!, {r4, r5, r6, r7, r8, r9, sl, fp, lr}
 1aa:	f7ff bffe 	b.w	0 <ArtNetNode::SendPollRelply(unsigned long, unsigned long, artnet::ArtPollQueue*)>
 1ae:	b005      	add	sp, #20
 1b0:	e8bd 8ff0 	ldmia.w	sp!, {r4, r5, r6, r7, r8, r9, sl, fp, pc}
	...

artnetnodehandlepoll.o:     file format elf32-littlearm


Disassembly of section .text._ZN10ArtNetNode17ProcessPollRelplyEmRmS0_:

00000000 <ArtNetNode::ProcessPollRelply(unsigned long, unsigned long&, unsigned long&)>:
   0:	e92d 43f8 	stmdb	sp!, {r3, r4, r5, r6, r7, r8, r9, lr}
   4:	461f      	mov	r7, r3
   6:	2328      	movs	r3, #40	@ 0x28
   8:	fb03 0301 	mla	r3, r3, r1, r0
   c:	4604      	mov	r4, r0
   e:	f8d3 2bf0 	ldr.w	r2, [r3, #3056]	@ 0xbf0
  12:	2a01      	cmp	r2, #1
  14:	460d      	mov	r5, r1
  16:	d138      	bne.n	8a <ArtNetNode::ProcessPollRelply(unsigned long, unsigned long&, unsigned long&)+0x8a>
  18:	f8d3 3bf4 	ldr.w	r3, [r3, #3060]	@ 0xbf4
  1c:	2b01      	cmp	r3, #1
  1e:	d110      	bne.n	42 <ArtNetNode::ProcessPollRelply(unsigned long, unsigned long&, unsigned long&)+0x42>
  20:	f04f 0824 	mov.w	r8, #36	@ 0x24
  24:	fb08 0801 	mla	r8, r8, r1, r0
  28:	f241 1970 	movw	r9, #4464	@ 0x1170
  2c:	f818 6009 	ldrb.w	r6, [r8, r9]
  30:	f7ff fffe 	bl	0 <ArtNetNode::GetGoodOutput4(unsigned long)>
  34:	f006 0676 	and.w	r6, r6, #118	@ 0x76
  38:	f020 0076 	bic.w	r0, r0, #118	@ 0x76
  3c:	4306      	orrs	r6, r0
  3e:	f808 6009 	strb.w	r6, [r8, r9]
  42:	f504 5280 	add.w	r2, r4, #4096	@ 0x1000
  46:	f241 1170 	movw	r1, #4464	@ 0x1170
  4a:	f892 3802 	ldrb.w	r3, [r2, #2050]	@ 0x802
  4e:	f063 037f 	orn	r3, r3, #127	@ 0x7f
  52:	f882 3802 	strb.w	r3, [r2, #2050]	@ 0x802
  56:	2324      	movs	r3, #36	@ 0x24
  58:	fb03 4305 	mla	r3, r3, r5, r4
  5c:	5c59      	ldrb	r1, [r3, r1]
  5e:	f882 180a 	strb.w	r1, [r2, #2058]	@ 0x80a
  62:	f241 1171 	movw	r1, #4465	@ 0x1171
  66:	5c5b      	ldrb	r3, [r3, r1]
  68:	f882 3829 	strb.w	r3, [r2, #2089]	@ 0x829
  6c:	2128      	movs	r1, #40	@ 0x28
  6e:	2300      	movs	r3, #0
  70:	fb01 4405 	mla	r4, r1, r5, r4
  74:	f882 3806 	strb.w	r3, [r2, #2054]	@ 0x806
  78:	f894 1bea 	ldrb.w	r1, [r4, #3050]	@ 0xbea
  7c:	f882 1812 	strb.w	r1, [r2, #2066]	@ 0x812
  80:	f882 380e 	strb.w	r3, [r2, #2062]	@ 0x80e
  84:	683b      	ldr	r3, [r7, #0]
  86:	3301      	adds	r3, #1
  88:	603b      	str	r3, [r7, #0]
  8a:	e8bd 83f8 	ldmia.w	sp!, {r3, r4, r5, r6, r7, r8, r9, pc}

Disassembly of section .text._ZN10ArtNetNode14SendPollRelplyEmmPN6artnet12ArtPollQueueE:

00000000 <ArtNetNode::SendPollRelply(unsigned long, unsigned long, artnet::ArtPollQueue*)>:
   0:	e92d 4ff0 	stmdb	sp!, {r4, r5, r6, r7, r8, r9, sl, fp, lr}
   4:	b089      	sub	sp, #36	@ 0x24
   6:	f8df b150 	ldr.w	fp, [pc, #336]	@ 158 <ArtNetNode::SendPollRelply(unsigned long, unsigned long, artnet::ArtPollQueue*)+0x158>
   a:	9205      	str	r2, [sp, #20]
   c:	4a4f      	ldr	r2, [pc, #316]	@ (14c <ArtNetNode::SendPollRelply(unsigned long, unsigned long, artnet::ArtPollQueue*)+0x14c>)
   e:	4699      	mov	r9, r3
  10:	f8db 3000 	ldr.w	r3, [fp]
  14:	6013      	str	r3, [r2, #0]
  16:	4688      	mov	r8, r1
  18:	f500 53ba 	add.w	r3, r0, #5952	@ 0x1740
  1c:	f500 51bb 	add.w	r1, r0, #5984	@ 0x1760
  20:	4604      	mov	r4, r0
  22:	331e      	adds	r3, #30
  24:	3102      	adds	r1, #2
  26:	f812 0b01 	ldrb.w	r0, [r2], #1
  2a:	f803 0b01 	strb.w	r0, [r3], #1
  2e:	428b      	cmp	r3, r1
  30:	d1f9      	bne.n	26 <ArtNetNode::SendPollRelply(unsigned long, unsigned long, artnet::ArtPollQueue*)+0x26>
  32:	f504 53c1 	add.w	r3, r4, #6176	@ 0x1820
  36:	f504 52c1 	add.w	r2, r4, #6176	@ 0x1820
  3a:	4944      	ldr	r1, [pc, #272]	@ (14c <ArtNetNode::SendPollRelply(unsigned long, unsigned long, artnet::ArtPollQueue*)+0x14c>)
  3c:	3303      	adds	r3, #3
  3e:	3207      	adds	r2, #7
  40:	f811 0b01 	ldrb.w	r0, [r1], #1
  44:	f803 0b01 	strb.w	r0, [r3], #1
  48:	4293      	cmp	r3, r2
  4a:	d1f9      	bne.n	40 <ArtNetNode::SendPollRelply(unsigned long, unsigned long, artnet::ArtPollQueue*)+0x40>
  4c:	f504 5ac0 	add.w	sl, r4, #6144	@ 0x1800
  50:	f604 36fc 	addw	r6, r4, #3068	@ 0xbfc
  54:	2700      	movs	r7, #0
  56:	f10a 0a05 	add.w	sl, sl, #5
  5a:	4639      	mov	r1, r7
  5c:	3701      	adds	r7, #1
  5e:	f1b8 0f00 	cmp.w	r8, #0
  62:	d001      	beq.n	68 <ArtNetNode::SendPollRelply(unsigned long, unsigned long, artnet::ArtPollQueue*)+0x68>
  64:	45b8      	cmp	r8, r7
  66:	d165      	bne.n	134 <ArtNetNode::SendPollRelply(unsigned long, unsigned long, artnet::ArtPollQueue*)+0x134>
  68:	f504 53c0 	add.w	r3, r4, #6144	@ 0x1800
  6c:	3301      	adds	r3, #1
  6e:	2200      	movs	r2, #0
  70:	f803 2f01 	strb.w	r2, [r3, #1]!
  74:	4553      	cmp	r3, sl
  76:	731a      	strb	r2, [r3, #12]
  78:	741a      	strb	r2, [r3, #16]
  7a:	d1f9      	bne.n	70 <ArtNetNode::SendPollRelply(unsigned long, unsigned long, artnet::ArtPollQueue*)+0x70>
  7c:	f504 5580 	add.w	r5, r4, #4096	@ 0x1000
  80:	f816 3c11 	ldrb.w	r3, [r6, #-17]
  84:	f885 3766 	strb.w	r3, [r5, #1894]	@ 0x766
  88:	f816 3c10 	ldrb.w	r3, [r6, #-16]
  8c:	f885 3767 	strb.w	r3, [r5, #1895]	@ 0x767
  90:	e9cd 2206 	strd	r2, r2, [sp, #24]
  94:	4630      	mov	r0, r6
  96:	f885 7827 	strb.w	r7, [r5, #2087]	@ 0x827
  9a:	f1b8 0f00 	cmp.w	r8, #0
  9e:	d10c      	bne.n	ba <ArtNetNode::SendPollRelply(unsigned long, unsigned long, artnet::ArtPollQueue*)+0xba>
  a0:	f1b9 0f00 	cmp.w	r9, #0
  a4:	d009      	beq.n	ba <ArtNetNode::SendPollRelply(unsigned long, unsigned long, artnet::ArtPollQueue*)+0xba>
  a6:	f836 3c14 	ldrh.w	r3, [r6, #-20]
  aa:	f8b9 200a 	ldrh.w	r2, [r9, #10]
  ae:	429a      	cmp	r2, r3
  b0:	d840      	bhi.n	134 <ArtNetNode::SendPollRelply(unsigned long, unsigned long, artnet::ArtPollQueue*)+0x134>
  b2:	f8b9 2008 	ldrh.w	r2, [r9, #8]
  b6:	429a      	cmp	r2, r3
  b8:	d33c      	bcc.n	134 <ArtNetNode::SendPollRelply(unsigned long, unsigned long, artnet::ArtPollQueue*)+0x134>
  ba:	f504 53bb 	add.w	r3, r4, #5984	@ 0x1760
  be:	330e      	adds	r3, #14
  c0:	f106 0212 	add.w	r2, r6, #18
  c4:	f810 cb01 	ldrb.w	ip, [r0], #1
  c8:	f803 cb01 	strb.w	ip, [r3], #1
  cc:	4290      	cmp	r0, r2
  ce:	d1f9      	bne.n	c4 <ArtNetNode::SendPollRelply(unsigned long, unsigned long, artnet::ArtPollQueue*)+0xc4>
  d0:	4620      	mov	r0, r4
  d2:	ab06      	add	r3, sp, #24
  d4:	aa07      	add	r2, sp, #28
  d6:	f7ff fffe 	bl	0 <ArtNetNode::SendPollRelply(unsigned long, unsigned long, artnet::ArtPollQueue*)>
  da:	f8d4 0bdc 	ldr.w	r0, [r4, #3036]	@ 0xbdc
  de:	b128      	cbz	r0, ec <ArtNetNode::SendPollRelply(unsigned long, unsigned long, artnet::ArtPollQueue*)+0xec>
  e0:	6803      	ldr	r3, [r0, #0]
  e2:	69db      	ldr	r3, [r3, #28]
  e4:	4798      	blx	r3
  e6:	ba40      	rev16	r0, r0
  e8:	f8a5 0836 	strh.w	r0, [r5, #2102]	@ 0x836
  ec:	9b06      	ldr	r3, [sp, #24]
  ee:	f885 3801 	strb.w	r3, [r5, #2049]	@ 0x801
  f2:	f8d5 30f8 	ldr.w	r3, [r5, #248]	@ 0xf8
  f6:	4a16      	ldr	r2, [pc, #88]	@ (150 <ArtNetNode::SendPollRelply(unsigned long, unsigned long, artnet::ArtPollQueue*)+0x150>)
  f8:	3301      	adds	r3, #1
  fa:	f8c5 30f8 	str.w	r3, [r5, #248]	@ 0xf8
  fe:	9202      	str	r2, [sp, #8]
 100:	2208      	movs	r2, #8
 102:	e9cd 3200 	strd	r3, r2, [sp]
 106:	2140      	movs	r1, #64	@ 0x40
 108:	f895 3138 	ldrb.w	r3, [r5, #312]	@ 0x138
 10c:	4a11      	ldr	r2, [pc, #68]	@ (154 <ArtNetNode::SendPollRelply(unsigned long, unsigned long, artnet::ArtPollQueue*)+0x154>)
 10e:	f504 50be 	add.w	r0, r4, #6080	@ 0x17c0
 112:	f7ff fffe 	bl	0 <snprintf>
 116:	f8db 3000 	ldr.w	r3, [fp]
 11a:	f8d4 0bc4 	ldr.w	r0, [r4, #3012]	@ 0xbc4
 11e:	f504 51ba 	add.w	r1, r4, #5952	@ 0x1740
 122:	3114      	adds	r1, #20
 124:	b133      	cbz	r3, 134 <ArtNetNode::SendPollRelply(unsigned long, unsigned long, artnet::ArtPollQueue*)+0x134>
 126:	f641 1336 	movw	r3, #6454	@ 0x1936
 12a:	9300      	str	r3, [sp, #0]
 12c:	22ef      	movs	r2, #239	@ 0xef
 12e:	9b05      	ldr	r3, [sp, #20]
 130:	f7ff fffe 	bl	0 <net::udp_send(int, unsigned char const*, unsigned long, unsigned long, unsigned short)>
 134:	2f20      	cmp	r7, #32
 136:	f106 0628 	add.w	r6, r6, #40	@ 0x28
 13a:	d18e      	bne.n	5a <ArtNetNode::SendPollRelply(unsigned long, unsigned long, artnet::ArtPollQueue*)+0x5a>
 13c:	f504 5480 	add.w	r4, r4, #4096	@ 0x1000
 140:	2300      	movs	r3, #0
 142:	f884 313f 	strb.w	r3, [r4, #319]	@ 0x13f
 146:	b009      	add	sp, #36	@ 0x24
 148:	e8bd 8ff0 	ldmia.w	sp!, {r4, r5, r6, r7, r8, r9, sl, fp, pc}
 14c:	00000000 	.word	0x00000000
 150:	00000016 	.word	0x00000016
	...

Disassembly of section .text._ZN10ArtNetNode10HandlePollEv:

00000000 <ArtNetNode::HandlePoll()>:
   0:	b5f0      	push	{r4, r5, r6, r7, lr}
   2:	f8d0 1bc8 	ldr.w	r1, [r0, #3016]	@ 0xbc8
   6:	7b0a      	ldrb	r2, [r1, #12]
   8:	f500 5380 	add.w	r3, r0, #4096	@ 0x1000
   c:	f3c2 0240 	ubfx	r2, r2, #1, #1
  10:	f883 213a 	strb.w	r2, [r3, #314]	@ 0x13a
  14:	7b0a      	ldrb	r2, [r1, #12]
  16:	f012 0204 	ands.w	r2, r2, #4
  1a:	d04c      	beq.n	b6 <ArtNetNode::HandlePoll()+0xb6>
  1c:	f8d3 40f4 	ldr.w	r4, [r3, #244]	@ 0xf4
  20:	f893 513c 	ldrb.w	r5, [r3, #316]	@ 0x13c
  24:	2201      	movs	r2, #1
  26:	f883 213b 	strb.w	r2, [r3, #315]	@ 0x13b
  2a:	b97c      	cbnz	r4, 4c <ArtNetNode::HandlePoll()+0x4c>
  2c:	f8d0 2bcc 	ldr.w	r2, [r0, #3020]	@ 0xbcc
  30:	f8c3 20f4 	str.w	r2, [r3, #244]	@ 0xf4
  34:	b1bd      	cbz	r5, 66 <ArtNetNode::HandlePoll()+0x66>
  36:	7b4a      	ldrb	r2, [r1, #13]
  38:	f893 4145 	ldrb.w	r4, [r3, #325]	@ 0x145
  3c:	42a2      	cmp	r2, r4
  3e:	bf28      	it	cs
  40:	4622      	movcs	r2, r4
  42:	f883 2145 	strb.w	r2, [r3, #325]	@ 0x145
  46:	4a1e      	ldr	r2, [pc, #120]	@ (c0 <ArtNetNode::HandlePoll()+0xc0>)
  48:	68d2      	ldr	r2, [r2, #12]
  4a:	e014      	b.n	76 <ArtNetNode::HandlePoll()+0x76>
  4c:	2d00      	cmp	r5, #0
  4e:	d1f2      	bne.n	36 <ArtNetNode::HandlePoll()+0x36>
  50:	f8d0 5bcc 	ldr.w	r5, [r0, #3020]	@ 0xbcc
  54:	42ac      	cmp	r4, r5
  56:	d006      	beq.n	66 <ArtNetNode::HandlePoll()+0x66>
  58:	4c19      	ldr	r4, [pc, #100]	@ (c0 <ArtNetNode::HandlePoll()+0xc0>)
  5a:	f883 213c 	strb.w	r2, [r3, #316]	@ 0x13c
  5e:	68e4      	ldr	r4, [r4, #12]
  60:	f8c3 40f0 	str.w	r4, [r3, #240]	@ 0xf0
  64:	e7e7      	b.n	36 <ArtNetNode::HandlePoll()+0x36>
  66:	7b4a      	ldrb	r2, [r1, #13]
  68:	f883 2145 	strb.w	r2, [r3, #325]	@ 0x145
  6c:	7b0a      	ldrb	r2, [r1, #12]
  6e:	0712      	lsls	r2, r2, #28
  70:	d5e9      	bpl.n	46 <ArtNetNode::HandlePoll()+0x46>
  72:	f8d0 2bcc 	ldr.w	r2, [r0, #3020]	@ 0xbcc
  76:	f8c3 20f0 	str.w	r2, [r3, #240]	@ 0xf0
  7a:	7b0b      	ldrb	r3, [r1, #12]
  7c:	f013 0301 	ands.w	r3, r3, #1
  80:	bf1a      	itte	ne
  82:	7bcc      	ldrbne	r4, [r1, #15]
  84:	7c4b      	ldrbne	r3, [r1, #17]
  86:	f647 74ff 	movweq	r4, #32767	@ 0x7fff
  8a:	f241 1208 	movw	r2, #4360	@ 0x1108
  8e:	f241 1538 	movw	r5, #4408	@ 0x1138
  92:	f1a0 060c 	sub.w	r6, r0, #12
  96:	42aa      	cmp	r2, r5
  98:	d00c      	beq.n	b4 <ArtNetNode::HandlePoll()+0xb4>
  9a:	f102 010c 	add.w	r1, r2, #12
  9e:	5877      	ldr	r7, [r6, r1]
  a0:	b967      	cbnz	r7, bc <ArtNetNode::HandlePoll()+0xbc>
  a2:	4d08      	ldr	r5, [pc, #32]	@ (c4 <ArtNetNode::HandlePoll()+0xc4>)
  a4:	682d      	ldr	r5, [r5, #0]
  a6:	5085      	str	r5, [r0, r2]
  a8:	1881      	adds	r1, r0, r2
  aa:	f8d0 2bcc 	ldr.w	r2, [r0, #3020]	@ 0xbcc
  ae:	604a      	str	r2, [r1, #4]
  b0:	810c      	strh	r4, [r1, #8]
  b2:	814b      	strh	r3, [r1, #10]
  b4:	bdf0      	pop	{r4, r5, r6, r7, pc}
  b6:	f883 213b 	strb.w	r2, [r3, #315]	@ 0x13b
  ba:	e7dc      	b.n	76 <ArtNetNode::HandlePoll()+0x76>
  bc:	460a      	mov	r2, r1
  be:	e7ea      	b.n	96 <ArtNetNode::HandlePoll()+0x96>
	...

artnetnodehandlesync.o:     file format elf32-littlearm


Disassembly of section .text._ZN10ArtNetNode10HandleSyncEv:

00000000 <ArtNetNode::HandleSync()>:
   0:	e92d 41f0 	stmdb	sp!, {r4, r5, r6, r7, r8, lr}
   4:	f500 5680 	add.w	r6, r0, #4096	@ 0x1000
   8:	4604      	mov	r4, r0
   a:	f896 313d 	ldrb.w	r3, [r6, #317]	@ 0x13d
   e:	b923      	cbnz	r3, 1a <ArtNetNode::HandleSync()+0x1a>
  10:	2301      	movs	r3, #1
  12:	f886 313d 	strb.w	r3, [r6, #317]	@ 0x13d
  16:	e8bd 81f0 	ldmia.w	sp!, {r4, r5, r6, r7, r8, pc}
  1a:	f500 578b 	add.w	r7, r0, #4448	@ 0x1160
  1e:	2500      	movs	r5, #0
  20:	3714      	adds	r7, #20
  22:	f04f 0824 	mov.w	r8, #36	@ 0x24
  26:	fb08 f305 	mul.w	r3, r8, r5
  2a:	5cfb      	ldrb	r3, [r7, r3]
  2c:	b12b      	cbz	r3, 3a <ArtNetNode::HandleSync()+0x3a>
  2e:	f8d4 0bdc 	ldr.w	r0, [r4, #3036]	@ 0xbdc
  32:	6803      	ldr	r3, [r0, #0]
  34:	4629      	mov	r1, r5
  36:	695b      	ldr	r3, [r3, #20]
  38:	4798      	blx	r3
  3a:	3501      	adds	r5, #1
  3c:	2d20      	cmp	r5, #32
  3e:	d1f2      	bne.n	26 <ArtNetNode::HandleSync()+0x26>
  40:	f8d4 0bdc 	ldr.w	r0, [r4, #3036]	@ 0xbdc
  44:	6803      	ldr	r3, [r0, #0]
  46:	699b      	ldr	r3, [r3, #24]
  48:	4798      	blx	r3
  4a:	f504 538a 	add.w	r3, r4, #4416	@ 0x1140
  4e:	f504 54ae 	add.w	r4, r4, #5568	@ 0x15c0
  52:	3314      	adds	r3, #20
  54:	3414      	adds	r4, #20
  56:	2100      	movs	r1, #0
  58:	2201      	movs	r2, #1
  5a:	42a3      	cmp	r3, r4
  5c:	d0db      	beq.n	16 <ArtNetNode::HandleSync()+0x16>
  5e:	f893 0020 	ldrb.w	r0, [r3, #32]
  62:	b130      	cbz	r0, 72 <ArtNetNode::HandleSync()+0x72>
  64:	7fd8      	ldrb	r0, [r3, #31]
  66:	f883 1020 	strb.w	r1, [r3, #32]
  6a:	b910      	cbnz	r0, 72 <ArtNetNode::HandleSync()+0x72>
  6c:	77da      	strb	r2, [r3, #31]
  6e:	f886 213f 	strb.w	r2, [r6, #319]	@ 0x13f
  72:	3324      	adds	r3, #36	@ 0x24
  74:	e7f1      	b.n	5a <ArtNetNode::HandleSync()+0x5a>

artnetnodehandletimesync.o:     file format elf32-littlearm


Disassembly of section .text._ZN10ArtNetNode14HandleTimeSyncEv:

00000000 <ArtNetNode::HandleTimeSync()>:
   0:	4770      	bx	lr

artnetnodeprint.o:     file format elf32-littlearm


Disassembly of section .text._ZN10ArtNetNode5PrintEv:

00000000 <ArtNetNode::Print()>:
   0:	e92d 4ff8 	stmdb	sp!, {r3, r4, r5, r6, r7, r8, r9, sl, fp, lr}
   4:	4a2d      	ldr	r2, [pc, #180]	@ (bc <ArtNetNode::Print()+0xbc>)
   6:	4604      	mov	r4, r0
   8:	7853      	ldrb	r3, [r2, #1]
   a:	482d      	ldr	r0, [pc, #180]	@ (c0 <ArtNetNode::Print()+0xc0>)
   c:	7812      	ldrb	r2, [r2, #0]
   e:	2104      	movs	r1, #4
  10:	f504 5880 	add.w	r8, r4, #4096	@ 0x1000
  14:	f7ff fffe 	bl	0 <printf>
  18:	482a      	ldr	r0, [pc, #168]	@ (c4 <ArtNetNode::Print()+0xc4>)
  1a:	f504 51bc 	add.w	r1, r4, #6016	@ 0x1780
  1e:	f7ff fffe 	bl	0 <printf>
  22:	f898 3143 	ldrb.w	r3, [r8, #323]	@ 0x143
  26:	2b00      	cmp	r3, #0
  28:	d043      	beq.n	b2 <ArtNetNode::Print()+0xb2>
  2a:	4827      	ldr	r0, [pc, #156]	@ (c8 <ArtNetNode::Print()+0xc8>)
  2c:	f8df 90b8 	ldr.w	r9, [pc, #184]	@ e8 <ArtNetNode::Print()+0xe8>
  30:	f8df a0b8 	ldr.w	sl, [pc, #184]	@ ec <ArtNetNode::Print()+0xec>
  34:	f8df b0b8 	ldr.w	fp, [pc, #184]	@ f0 <ArtNetNode::Print()+0xf0>
  38:	f7ff fffe 	bl	0 <printf>
  3c:	f504 558b 	add.w	r5, r4, #4448	@ 0x1160
  40:	4626      	mov	r6, r4
  42:	3510      	adds	r5, #16
  44:	2700      	movs	r7, #0
  46:	f8d6 3bf0 	ldr.w	r3, [r6, #3056]	@ 0xbf0
  4a:	2b01      	cmp	r3, #1
  4c:	d121      	bne.n	92 <ArtNetNode::Print()+0x92>
  4e:	782b      	ldrb	r3, [r5, #0]
  50:	f8b6 2be8 	ldrh.w	r2, [r6, #3048]	@ 0xbe8
  54:	f013 0f02 	tst.w	r3, #2
  58:	bf14      	ite	ne
  5a:	464b      	movne	r3, r9
  5c:	4653      	moveq	r3, sl
  5e:	4639      	mov	r1, r7
  60:	4658      	mov	r0, fp
  62:	f7ff fffe 	bl	0 <printf>
  66:	4a19      	ldr	r2, [pc, #100]	@ (cc <ArtNetNode::Print()+0xcc>)
  68:	4b19      	ldr	r3, [pc, #100]	@ (d0 <ArtNetNode::Print()+0xd0>)
  6a:	f8d6 1bf4 	ldr.w	r1, [r6, #3060]	@ 0xbf4
  6e:	4819      	ldr	r0, [pc, #100]	@ (d4 <ArtNetNode::Print()+0xd4>)
  70:	2900      	cmp	r1, #0
  72:	bf14      	ite	ne
  74:	4611      	movne	r1, r2
  76:	4619      	moveq	r1, r3
  78:	f7ff fffe 	bl	0 <printf>
  7c:	f995 1001 	ldrsb.w	r1, [r5, #1]
  80:	4a15      	ldr	r2, [pc, #84]	@ (d8 <ArtNetNode::Print()+0xd8>)
  82:	4b16      	ldr	r3, [pc, #88]	@ (dc <ArtNetNode::Print()+0xdc>)
  84:	4816      	ldr	r0, [pc, #88]	@ (e0 <ArtNetNode::Print()+0xe0>)
  86:	ea12 0121 	ands.w	r1, r2, r1, asr #32
  8a:	bf38      	it	cc
  8c:	4619      	movcc	r1, r3
  8e:	f7ff fffe 	bl	0 <printf>
  92:	3701      	adds	r7, #1
  94:	2f20      	cmp	r7, #32
  96:	f106 0628 	add.w	r6, r6, #40	@ 0x28
  9a:	f105 0524 	add.w	r5, r5, #36	@ 0x24
  9e:	d1d2      	bne.n	46 <ArtNetNode::Print()+0x46>
  a0:	f898 3143 	ldrb.w	r3, [r8, #323]	@ 0x143
  a4:	b12b      	cbz	r3, b2 <ArtNetNode::Print()+0xb2>
  a6:	f898 30ec 	ldrb.w	r3, [r8, #236]	@ 0xec
  aa:	b113      	cbz	r3, b2 <ArtNetNode::Print()+0xb2>
  ac:	480d      	ldr	r0, [pc, #52]	@ (e4 <ArtNetNode::Print()+0xe4>)
  ae:	f7ff fffe 	bl	0 <printf>
  b2:	4620      	mov	r0, r4
  b4:	e8bd 4ff8 	ldmia.w	sp!, {r3, r4, r5, r6, r7, r8, r9, sl, fp, lr}
  b8:	f7ff bffe 	b.w	0 <E131Bridge::Print()>
  bc:	00000000 	.word	0x00000000
  c0:	0000001d 	.word	0x0000001d
  c4:	00000030 	.word	0x00000030
  c8:	00000042 	.word	0x00000042
  cc:	00000010 	.word	0x00000010
  d0:	00000008 	.word	0x00000008
  d4:	0000005f 	.word	0x0000005f
  d8:	00000019 	.word	0x00000019
  dc:	00000015 	.word	0x00000015
  e0:	00000063 	.word	0x00000063
  e4:	00000068 	.word	0x00000068
  e8:	00000004 	.word	0x00000004
  ec:	00000000 	.word	0x00000000
  f0:	0000004b 	.word	0x0000004b

artnetparams.o:     file format elf32-littlearm


Disassembly of section .text._ZN17PropertiesBuilder3AddIPKcEEbS2_T_bi.isra.0:

00000000 <bool PropertiesBuilder::Add<char const*>(char const*, char const*, bool, int) [clone .isra.0]>:
   0:	b573      	push	{r0, r1, r4, r5, r6, lr}
   2:	88c6      	ldrh	r6, [r0, #6]
   4:	8885      	ldrh	r5, [r0, #4]
   6:	42ae      	cmp	r6, r5
   8:	d216      	bcs.n	38 <bool PropertiesBuilder::Add<char const*>(char const*, char const*, bool, int) [clone .isra.0]+0x38>
   a:	4604      	mov	r4, r0
   c:	6800      	ldr	r0, [r0, #0]
   e:	1bad      	subs	r5, r5, r6
  10:	4430      	add	r0, r6
  12:	7a26      	ldrb	r6, [r4, #8]
  14:	b923      	cbnz	r3, 20 <bool PropertiesBuilder::Add<char const*>(char const*, char const*, bool, int) [clone .isra.0]+0x20>
  16:	b926      	cbnz	r6, 22 <bool PropertiesBuilder::Add<char const*>(char const*, char const*, bool, int) [clone .isra.0]+0x22>
  18:	9200      	str	r2, [sp, #0]
  1a:	460b      	mov	r3, r1
  1c:	4a09      	ldr	r2, [pc, #36]	@ (44 <bool PropertiesBuilder::Add<char const*>(char const*, char const*, bool, int) [clone .isra.0]+0x44>)
  1e:	e003      	b.n	28 <bool PropertiesBuilder::Add<char const*>(char const*, char const*, bool, int) [clone .isra.0]+0x28>
  20:	b166      	cbz	r6, 3c <bool PropertiesBuilder::Add<char const*>(char const*, char const*, bool, int) [clone .isra.0]+0x3c>
  22:	9200      	str	r2, [sp, #0]
  24:	4a08      	ldr	r2, [pc, #32]	@ (48 <bool PropertiesBuilder::Add<char const*>(char const*, char const*, bool, int) [clone .isra.0]+0x48>)
  26:	460b      	mov	r3, r1
  28:	4629      	mov	r1, r5
  2a:	f7ff fffe 	bl	0 <snprintf>
  2e:	4285      	cmp	r5, r0
  30:	bfa2      	ittt	ge
  32:	88e3      	ldrhge	r3, [r4, #6]
  34:	181b      	addge	r3, r3, r0
  36:	80e3      	strhge	r3, [r4, #6]
  38:	b002      	add	sp, #8
  3a:	bd70      	pop	{r4, r5, r6, pc}
  3c:	9200      	str	r2, [sp, #0]
  3e:	460b      	mov	r3, r1
  40:	4a02      	ldr	r2, [pc, #8]	@ (4c <bool PropertiesBuilder::Add<char const*>(char const*, char const*, bool, int) [clone .isra.0]+0x4c>)
  42:	e7f1      	b.n	28 <bool PropertiesBuilder::Add<char const*>(char const*, char const*, bool, int) [clone .isra.0]+0x28>
  44:	00000012 	.word	0x00000012
  48:	00000000 	.word	0x00000000
  4c:	0000000b 	.word	0x0000000b

Disassembly of section .text._ZN17PropertiesBuilder3AddEPKcb.isra.0:

00000000 <PropertiesBuilder::Add(char const*, bool) [clone .isra.0]>:
   0:	b537      	push	{r0, r1, r2, r4, r5, lr}
   2:	460b      	mov	r3, r1
   4:	8885      	ldrh	r5, [r0, #4]
   6:	88c1      	ldrh	r1, [r0, #6]
   8:	42a9      	cmp	r1, r5
   a:	d214      	bcs.n	36 <PropertiesBuilder::Add(char const*, bool) [clone .isra.0]+0x36>
   c:	4604      	mov	r4, r0
   e:	6800      	ldr	r0, [r0, #0]
  10:	1a6d      	subs	r5, r5, r1
  12:	4408      	add	r0, r1
  14:	7a21      	ldrb	r1, [r4, #8]
  16:	b91a      	cbnz	r2, 20 <PropertiesBuilder::Add(char const*, bool) [clone .isra.0]+0x20>
  18:	b919      	cbnz	r1, 22 <PropertiesBuilder::Add(char const*, bool) [clone .isra.0]+0x22>
  1a:	4a0a      	ldr	r2, [pc, #40]	@ (44 <PropertiesBuilder::Add(char const*, bool) [clone .isra.0]+0x44>)
  1c:	9100      	str	r1, [sp, #0]
  1e:	e002      	b.n	26 <PropertiesBuilder::Add(char const*, bool) [clone .isra.0]+0x26>
  20:	b159      	cbz	r1, 3a <PropertiesBuilder::Add(char const*, bool) [clone .isra.0]+0x3a>
  22:	9200      	str	r2, [sp, #0]
  24:	4a08      	ldr	r2, [pc, #32]	@ (48 <PropertiesBuilder::Add(char const*, bool) [clone .isra.0]+0x48>)
  26:	4629      	mov	r1, r5
  28:	f7ff fffe 	bl	0 <snprintf>
  2c:	4285      	cmp	r5, r0
  2e:	bfa2      	ittt	ge
  30:	88e3      	ldrhge	r3, [r4, #6]
  32:	181b      	addge	r3, r3, r0
  34:	80e3      	strhge	r3, [r4, #6]
  36:	b003      	add	sp, #12
  38:	bd30      	pop	{r4, r5, pc}
  3a:	2201      	movs	r2, #1
  3c:	9200      	str	r2, [sp, #0]
  3e:	4a03      	ldr	r2, [pc, #12]	@ (4c <PropertiesBuilder::Add(char const*, bool) [clone .isra.0]+0x4c>)
  40:	e7f1      	b.n	26 <PropertiesBuilder::Add(char const*, bool) [clone .isra.0]+0x26>
  42:	bf00      	nop
  44:	00000010 	.word	0x00000010
  48:	00000000 	.word	0x00000000
  4c:	00000009 	.word	0x00000009

Disassembly of section .text.memcmp:

00000000 <memcmp>:
   0:	4402      	add	r2, r0
   2:	4290      	cmp	r0, r2
   4:	f101 31ff 	add.w	r1, r1, #4294967295	@ 0xffffffff
   8:	d106      	bne.n	18 <memcmp+0x18>
   a:	2000      	movs	r0, #0
   c:	4770      	bx	lr
   e:	3001      	adds	r0, #1
  10:	4290      	cmp	r0, r2
  12:	d102      	bne.n	1a <memcmp+0x1a>
  14:	2000      	movs	r0, #0
  16:	e006      	b.n	26 <memcmp+0x26>
  18:	b510      	push	{r4, lr}
  1a:	7803      	ldrb	r3, [r0, #0]
  1c:	f811 4f01 	ldrb.w	r4, [r1, #1]!
  20:	42a3      	cmp	r3, r4
  22:	d0f4      	beq.n	e <memcmp+0xe>
  24:	1b18      	subs	r0, r3, r4
  26:	bd10      	pop	{r4, pc}

Disassembly of section .text._ZN17ArtNetParamsStore4CopyEPN12artnetparams6ParamsE:

00000000 <ArtNetParamsStore::Copy(artnetparams::Params*)>:
   0:	b507      	push	{r0, r1, r2, lr}
   2:	2300      	movs	r3, #0
   4:	2101      	movs	r1, #1
   6:	e9cd 3100 	strd	r3, r1, [sp]
   a:	4602      	mov	r2, r0
   c:	4804      	ldr	r0, [pc, #16]	@ (20 <ArtNetParamsStore::Copy(artnetparams::Params*)+0x20>)
   e:	23dc      	movs	r3, #220	@ 0xdc
  10:	6800      	ldr	r0, [r0, #0]
  12:	2119      	movs	r1, #25
  14:	f7ff fffe 	bl	0 <ConfigStore::Copy(configstore::Store, void*, unsigned long, unsigned long, bool)>
  18:	b003      	add	sp, #12
  1a:	f85d fb04 	ldr.w	pc, [sp], #4
  1e:	bf00      	nop
  20:	00000000 	.word	0x00000000

Disassembly of section .text._ZN12ArtNetParamsC2Ev:

00000000 <ArtNetParams::ArtNetParams()>:
   0:	4b0f      	ldr	r3, [pc, #60]	@ (40 <ArtNetParams::ArtNetParams()+0x40>)
   2:	b570      	push	{r4, r5, r6, lr}
   4:	22dc      	movs	r2, #220	@ 0xdc
   6:	4604      	mov	r4, r0
   8:	2100      	movs	r1, #0
   a:	681e      	ldr	r6, [r3, #0]
   c:	f7ff fffe 	bl	0 <memset>
  10:	2301      	movs	r3, #1
  12:	7163      	strb	r3, [r4, #5]
  14:	2302      	movs	r3, #2
  16:	71e3      	strb	r3, [r4, #7]
  18:	2303      	movs	r3, #3
  1a:	7263      	strb	r3, [r4, #9]
  1c:	2304      	movs	r3, #4
  1e:	2500      	movs	r5, #0
  20:	72e3      	strb	r3, [r4, #11]
  22:	2355      	movs	r3, #85	@ 0x55
  24:	4630      	mov	r0, r6
  26:	71a5      	strb	r5, [r4, #6]
  28:	7225      	strb	r5, [r4, #8]
  2a:	72a5      	strb	r5, [r4, #10]
  2c:	7325      	strb	r5, [r4, #12]
  2e:	7363      	strb	r3, [r4, #13]
  30:	73a5      	strb	r5, [r4, #14]
  32:	f104 0113 	add.w	r1, r4, #19
  36:	f7ff fffe 	bl	0 <ArtNetNode::GetLongNameDefault(char*)>
  3a:	74a5      	strb	r5, [r4, #18]
  3c:	4620      	mov	r0, r4
  3e:	bd70      	pop	{r4, r5, r6, pc}
  40:	00000000 	.word	0x00000000

Disassembly of section .text._ZN12ArtNetParams4LoadEv:

00000000 <ArtNetParams::Load()>:
   0:	b508      	push	{r3, lr}
   2:	2200      	movs	r2, #0
   4:	7002      	strb	r2, [r0, #0]
   6:	7042      	strb	r2, [r0, #1]
   8:	7082      	strb	r2, [r0, #2]
   a:	70c2      	strb	r2, [r0, #3]
   c:	f7ff fffe 	bl	0 <ArtNetParams::Load()>
  10:	2001      	movs	r0, #1
  12:	bd08      	pop	{r3, pc}

Disassembly of section .text._ZN12ArtNetParams4LoadEPKcm:

00000000 <ArtNetParams::Load(char const*, unsigned long)>:
   0:	b5f0      	push	{r4, r5, r6, r7, lr}
   2:	2500      	movs	r5, #0
   4:	b087      	sub	sp, #28
   6:	4604      	mov	r4, r0
   8:	460e      	mov	r6, r1
   a:	4617      	mov	r7, r2
   c:	7005      	strb	r5, [r0, #0]
   e:	7045      	strb	r5, [r0, #1]
  10:	7085      	strb	r5, [r0, #2]
  12:	70c5      	strb	r5, [r0, #3]
  14:	4602      	mov	r2, r0
  16:	490c      	ldr	r1, [pc, #48]	@ (48 <ArtNetParams::Load(char const*, unsigned long)+0x48>)
  18:	a804      	add	r0, sp, #16
  1a:	f7ff fffe 	bl	0 <ReadConfigFile::ReadConfigFile(void (*)(void*, char const*), void*)>
  1e:	463a      	mov	r2, r7
  20:	4631      	mov	r1, r6
  22:	a804      	add	r0, sp, #16
  24:	f7ff fffe 	bl	0 <ReadConfigFile::Read(char const*, unsigned int)>
  28:	e9cd 5501 	strd	r5, r5, [sp, #4]
  2c:	23dc      	movs	r3, #220	@ 0xdc
  2e:	4807      	ldr	r0, [pc, #28]	@ (4c <ArtNetParams::Load(char const*, unsigned long)+0x4c>)
  30:	9300      	str	r3, [sp, #0]
  32:	462a      	mov	r2, r5
  34:	4623      	mov	r3, r4
  36:	2119      	movs	r1, #25
  38:	6800      	ldr	r0, [r0, #0]
  3a:	f7ff fffe 	bl	0 <ConfigStore::Update(configstore::Store, unsigned long, void const*, unsigned long, unsigned long, unsigned long)>
  3e:	a804      	add	r0, sp, #16
  40:	f7ff fffe 	bl	0 <ReadConfigFile::~ReadConfigFile()>
  44:	b007      	add	sp, #28
  46:	bdf0      	pop	{r4, r5, r6, r7, pc}
	...

Disassembly of section .text._ZN12ArtNetParams7SetBoolEhm:

00000000 <ArtNetParams::SetBool(unsigned char, unsigned long)>:
   0:	6803      	ldr	r3, [r0, #0]
   2:	b111      	cbz	r1, a <ArtNetParams::SetBool(unsigned char, unsigned long)+0xa>
   4:	4313      	orrs	r3, r2
   6:	6003      	str	r3, [r0, #0]
   8:	4770      	bx	lr
   a:	ea23 0302 	bic.w	r3, r3, r2
   e:	e7fa      	b.n	6 <ArtNetParams::SetBool(unsigned char, unsigned long)+0x6>

Disassembly of section .text._ZN12ArtNetParams16callbackFunctionEPKc:

00000000 <ArtNetParams::callbackFunction(char const*)>:
   0:	e92d 4ff0 	stmdb	sp!, {r4, r5, r6, r7, r8, r9, sl, fp, lr}
   4:	f8df b338 	ldr.w	fp, [pc, #824]	@ 340 <ArtNetParams::callbackFunction(char const*)+0x340>
   8:	b093      	sub	sp, #76	@ 0x4c
   a:	4604      	mov	r4, r0
   c:	460e      	mov	r6, r1
   e:	f100 0853 	add.w	r8, r0, #83	@ 0x53
  12:	2500      	movs	r5, #0
  14:	466a      	mov	r2, sp
  16:	4659      	mov	r1, fp
  18:	4630      	mov	r0, r6
  1a:	f7ff fffe 	bl	0 <Sscan::Uint16(char const*, char const*, unsigned short&)>
  1e:	b9c0      	cbnz	r0, 52 <ArtNetParams::callbackFunction(char const*)+0x52>
  20:	f8bd 1000 	ldrh.w	r1, [sp]
  24:	b161      	cbz	r1, 40 <ArtNetParams::callbackFunction(char const*)+0x40>
  26:	eb04 0345 	add.w	r3, r4, r5, lsl #1
  2a:	f8a3 1005 	strh.w	r1, [r3, #5]
  2e:	2302      	movs	r3, #2
  30:	40ab      	lsls	r3, r5
  32:	3501      	adds	r5, #1
  34:	b2ad      	uxth	r5, r5
  36:	42a9      	cmp	r1, r5
  38:	6822      	ldr	r2, [r4, #0]
  3a:	d006      	beq.n	4a <ArtNetParams::callbackFunction(char const*)+0x4a>
  3c:	4313      	orrs	r3, r2
  3e:	6023      	str	r3, [r4, #0]
  40:	b013      	add	sp, #76	@ 0x4c
  42:	e8bd 8ff0 	ldmia.w	sp!, {r4, r5, r6, r7, r8, r9, sl, fp, pc}
  46:	464d      	mov	r5, r9
  48:	e7e4      	b.n	14 <ArtNetParams::callbackFunction(char const*)+0x14>
  4a:	ea22 0203 	bic.w	r2, r2, r3
  4e:	6022      	str	r2, [r4, #0]
  50:	e7f6      	b.n	40 <ArtNetParams::callbackFunction(char const*)+0x40>
  52:	49af      	ldr	r1, [pc, #700]	@ (310 <ArtNetParams::callbackFunction(char const*)+0x310>)
  54:	2712      	movs	r7, #18
  56:	2307      	movs	r3, #7
  58:	436f      	muls	r7, r5
  5a:	9301      	str	r3, [sp, #4]
  5c:	aa02      	add	r2, sp, #8
  5e:	ab01      	add	r3, sp, #4
  60:	4439      	add	r1, r7
  62:	4630      	mov	r0, r6
  64:	f7ff fffe 	bl	0 <Sscan::Char(char const*, char const*, char*, unsigned long&)>
  68:	2800      	cmp	r0, #0
  6a:	d15f      	bne.n	12c <ArtNetParams::callbackFunction(char const*)+0x12c>
  6c:	f89d 3008 	ldrb.w	r3, [sp, #8]
  70:	f043 0320 	orr.w	r3, r3, #32
  74:	2b69      	cmp	r3, #105	@ 0x69
  76:	d12e      	bne.n	d6 <ArtNetParams::callbackFunction(char const*)+0xd6>
  78:	f89d 3009 	ldrb.w	r3, [sp, #9]
  7c:	f043 0320 	orr.w	r3, r3, #32
  80:	2b6e      	cmp	r3, #110	@ 0x6e
  82:	d151      	bne.n	128 <ArtNetParams::callbackFunction(char const*)+0x128>
  84:	f89d 300a 	ldrb.w	r3, [sp, #10]
  88:	f043 0320 	orr.w	r3, r3, #32
  8c:	2b70      	cmp	r3, #112	@ 0x70
  8e:	d14b      	bne.n	128 <ArtNetParams::callbackFunction(char const*)+0x128>
  90:	f89d 300b 	ldrb.w	r3, [sp, #11]
  94:	f043 0320 	orr.w	r3, r3, #32
  98:	2b75      	cmp	r3, #117	@ 0x75
  9a:	d145      	bne.n	128 <ArtNetParams::callbackFunction(char const*)+0x128>
  9c:	f89d 300c 	ldrb.w	r3, [sp, #12]
  a0:	f043 0320 	orr.w	r3, r3, #32
  a4:	3b74      	subs	r3, #116	@ 0x74
  a6:	bf18      	it	ne
  a8:	2301      	movne	r3, #1
  aa:	2b02      	cmp	r3, #2
  ac:	ea4f 0545 	mov.w	r5, r5, lsl #1
  b0:	f8b4 200d 	ldrh.w	r2, [r4, #13]
  b4:	f04f 0103 	mov.w	r1, #3
  b8:	fa01 f105 	lsl.w	r1, r1, r5
  bc:	bf18      	it	ne
  be:	2301      	movne	r3, #1
  c0:	ea22 0201 	bic.w	r2, r2, r1
  c4:	bf0b      	itete	eq
  c6:	40ab      	lsleq	r3, r5
  c8:	fa03 f505 	lslne.w	r5, r3, r5
  cc:	431a      	orreq	r2, r3
  ce:	432a      	orrne	r2, r5
  d0:	f8a4 200d 	strh.w	r2, [r4, #13]
  d4:	e7b4      	b.n	40 <ArtNetParams::callbackFunction(char const*)+0x40>
  d6:	2b64      	cmp	r3, #100	@ 0x64
  d8:	d126      	bne.n	128 <ArtNetParams::callbackFunction(char const*)+0x128>
  da:	f89d 3009 	ldrb.w	r3, [sp, #9]
  de:	f043 0320 	orr.w	r3, r3, #32
  e2:	2b69      	cmp	r3, #105	@ 0x69
  e4:	d120      	bne.n	128 <ArtNetParams::callbackFunction(char const*)+0x128>
  e6:	f89d 300a 	ldrb.w	r3, [sp, #10]
  ea:	f043 0320 	orr.w	r3, r3, #32
  ee:	2b73      	cmp	r3, #115	@ 0x73
  f0:	d11a      	bne.n	128 <ArtNetParams::callbackFunction(char const*)+0x128>
  f2:	f89d 300b 	ldrb.w	r3, [sp, #11]
  f6:	f043 0320 	orr.w	r3, r3, #32
  fa:	2b61      	cmp	r3, #97	@ 0x61
  fc:	d114      	bne.n	128 <ArtNetParams::callbackFunction(char const*)+0x128>
  fe:	f89d 300c 	ldrb.w	r3, [sp, #12]
 102:	f043 0320 	orr.w	r3, r3, #32
 106:	2b62      	cmp	r3, #98	@ 0x62
 108:	d10e      	bne.n	128 <ArtNetParams::callbackFunction(char const*)+0x128>
 10a:	f89d 300d 	ldrb.w	r3, [sp, #13]
 10e:	f043 0320 	orr.w	r3, r3, #32
 112:	2b6c      	cmp	r3, #108	@ 0x6c
 114:	d108      	bne.n	128 <ArtNetParams::callbackFunction(char const*)+0x128>
 116:	f89d 300e 	ldrb.w	r3, [sp, #14]
 11a:	f043 0320 	orr.w	r3, r3, #32
 11e:	2b65      	cmp	r3, #101	@ 0x65
 120:	bf0c      	ite	eq
 122:	2302      	moveq	r3, #2
 124:	2301      	movne	r3, #1
 126:	e7c0      	b.n	aa <ArtNetParams::callbackFunction(char const*)+0xaa>
 128:	2301      	movs	r3, #1
 12a:	e7be      	b.n	aa <ArtNetParams::callbackFunction(char const*)+0xaa>
 12c:	4979      	ldr	r1, [pc, #484]	@ (314 <ArtNetParams::callbackFunction(char const*)+0x314>)
 12e:	f04f 0a03 	mov.w	sl, #3
 132:	ab01      	add	r3, sp, #4
 134:	aa02      	add	r2, sp, #8
 136:	4439      	add	r1, r7
 138:	4630      	mov	r0, r6
 13a:	f8cd a004 	str.w	sl, [sp, #4]
 13e:	f7ff fffe 	bl	0 <Sscan::Char(char const*, char const*, char*, unsigned long&)>
 142:	b9f8      	cbnz	r0, 184 <ArtNetParams::callbackFunction(char const*)+0x184>
 144:	f89d 2008 	ldrb.w	r2, [sp, #8]
 148:	f8b4 300f 	ldrh.w	r3, [r4, #15]
 14c:	006d      	lsls	r5, r5, #1
 14e:	f042 0220 	orr.w	r2, r2, #32
 152:	fa0a fa05 	lsl.w	sl, sl, r5
 156:	2a6c      	cmp	r2, #108	@ 0x6c
 158:	ea23 030a 	bic.w	r3, r3, sl
 15c:	d10d      	bne.n	17a <ArtNetParams::callbackFunction(char const*)+0x17a>
 15e:	f89d 2009 	ldrb.w	r2, [sp, #9]
 162:	f042 0220 	orr.w	r2, r2, #32
 166:	2a74      	cmp	r2, #116	@ 0x74
 168:	d107      	bne.n	17a <ArtNetParams::callbackFunction(char const*)+0x17a>
 16a:	f89d 000a 	ldrb.w	r0, [sp, #10]
 16e:	f040 0020 	orr.w	r0, r0, #32
 172:	f1a0 0170 	sub.w	r1, r0, #112	@ 0x70
 176:	4248      	negs	r0, r1
 178:	4148      	adcs	r0, r1
 17a:	40a8      	lsls	r0, r5
 17c:	4303      	orrs	r3, r0
 17e:	f8a4 300f 	strh.w	r3, [r4, #15]
 182:	e75d      	b.n	40 <ArtNetParams::callbackFunction(char const*)+0x40>
 184:	4864      	ldr	r0, [pc, #400]	@ (318 <ArtNetParams::callbackFunction(char const*)+0x318>)
 186:	2311      	movs	r3, #17
 188:	210e      	movs	r1, #14
 18a:	9301      	str	r3, [sp, #4]
 18c:	fb01 0105 	mla	r1, r1, r5, r0
 190:	ab01      	add	r3, sp, #4
 192:	4642      	mov	r2, r8
 194:	4630      	mov	r0, r6
 196:	f7ff fffe 	bl	0 <Sscan::Char(char const*, char const*, char*, unsigned long&)>
 19a:	f105 0901 	add.w	r9, r5, #1
 19e:	bb08      	cbnz	r0, 1e4 <ArtNetParams::callbackFunction(char const*)+0x1e4>
 1a0:	9b01      	ldr	r3, [sp, #4]
 1a2:	4a5e      	ldr	r2, [pc, #376]	@ (31c <ArtNetParams::callbackFunction(char const*)+0x31c>)
 1a4:	4427      	add	r7, r4
 1a6:	441f      	add	r7, r3
 1a8:	2111      	movs	r1, #17
 1aa:	f887 0053 	strb.w	r0, [r7, #83]	@ 0x53
 1ae:	464b      	mov	r3, r9
 1b0:	a802      	add	r0, sp, #8
 1b2:	f7ff fffe 	bl	0 <snprintf>
 1b6:	f108 38ff 	add.w	r8, r8, #4294967295	@ 0xffffffff
 1ba:	a902      	add	r1, sp, #8
 1bc:	f818 3f01 	ldrb.w	r3, [r8, #1]!
 1c0:	f811 2b01 	ldrb.w	r2, [r1], #1
 1c4:	4293      	cmp	r3, r2
 1c6:	d001      	beq.n	1cc <ArtNetParams::callbackFunction(char const*)+0x1cc>
 1c8:	1a9b      	subs	r3, r3, r2
 1ca:	e001      	b.n	1d0 <ArtNetParams::callbackFunction(char const*)+0x1d0>
 1cc:	2b00      	cmp	r3, #0
 1ce:	d1f5      	bne.n	1bc <ArtNetParams::callbackFunction(char const*)+0x1bc>
 1d0:	2280      	movs	r2, #128	@ 0x80
 1d2:	6821      	ldr	r1, [r4, #0]
 1d4:	40aa      	lsls	r2, r5
 1d6:	b91b      	cbnz	r3, 1e0 <ArtNetParams::callbackFunction(char const*)+0x1e0>
 1d8:	ea21 0102 	bic.w	r1, r1, r2
 1dc:	6021      	str	r1, [r4, #0]
 1de:	e72f      	b.n	40 <ArtNetParams::callbackFunction(char const*)+0x40>
 1e0:	430a      	orrs	r2, r1
 1e2:	e734      	b.n	4e <ArtNetParams::callbackFunction(char const*)+0x4e>
 1e4:	f1b9 0f04 	cmp.w	r9, #4
 1e8:	f10b 0b10 	add.w	fp, fp, #16
 1ec:	f108 0812 	add.w	r8, r8, #18
 1f0:	f47f af29 	bne.w	46 <ArtNetParams::callbackFunction(char const*)+0x46>
 1f4:	2708      	movs	r7, #8
 1f6:	494a      	ldr	r1, [pc, #296]	@ (320 <ArtNetParams::callbackFunction(char const*)+0x320>)
 1f8:	9700      	str	r7, [sp, #0]
 1fa:	466b      	mov	r3, sp
 1fc:	eb0d 0207 	add.w	r2, sp, r7
 200:	4630      	mov	r0, r6
 202:	f7ff fffe 	bl	0 <Sscan::Char(char const*, char const*, char*, unsigned long&)>
 206:	bb50      	cbnz	r0, 25e <ArtNetParams::callbackFunction(char const*)+0x25e>
 208:	4946      	ldr	r1, [pc, #280]	@ (324 <ArtNetParams::callbackFunction(char const*)+0x324>)
 20a:	464a      	mov	r2, r9
 20c:	eb0d 0007 	add.w	r0, sp, r7
 210:	f7ff fffe 	bl	0 <ArtNetParams::callbackFunction(char const*)>
 214:	6825      	ldr	r5, [r4, #0]
 216:	b1a0      	cbz	r0, 242 <ArtNetParams::callbackFunction(char const*)+0x242>
 218:	4943      	ldr	r1, [pc, #268]	@ (328 <ArtNetParams::callbackFunction(char const*)+0x328>)
 21a:	4652      	mov	r2, sl
 21c:	eb0d 0007 	add.w	r0, sp, r7
 220:	f7ff fffe 	bl	0 <ArtNetParams::callbackFunction(char const*)>
 224:	b198      	cbz	r0, 24e <ArtNetParams::callbackFunction(char const*)+0x24e>
 226:	4941      	ldr	r1, [pc, #260]	@ (32c <ArtNetParams::callbackFunction(char const*)+0x32c>)
 228:	2202      	movs	r2, #2
 22a:	eb0d 0007 	add.w	r0, sp, r7
 22e:	f7ff fffe 	bl	0 <ArtNetParams::callbackFunction(char const*)>
 232:	b180      	cbz	r0, 256 <ArtNetParams::callbackFunction(char const*)+0x256>
 234:	493e      	ldr	r1, [pc, #248]	@ (330 <ArtNetParams::callbackFunction(char const*)+0x330>)
 236:	463a      	mov	r2, r7
 238:	eb0d 0007 	add.w	r0, sp, r7
 23c:	f7ff fffe 	bl	0 <ArtNetParams::callbackFunction(char const*)>
 240:	b158      	cbz	r0, 25a <ArtNetParams::callbackFunction(char const*)+0x25a>
 242:	f025 0520 	bic.w	r5, r5, #32
 246:	2300      	movs	r3, #0
 248:	6025      	str	r5, [r4, #0]
 24a:	74a3      	strb	r3, [r4, #18]
 24c:	e6f8      	b.n	40 <ArtNetParams::callbackFunction(char const*)+0x40>
 24e:	2301      	movs	r3, #1
 250:	f045 0520 	orr.w	r5, r5, #32
 254:	e7f8      	b.n	248 <ArtNetParams::callbackFunction(char const*)+0x248>
 256:	2302      	movs	r3, #2
 258:	e7fa      	b.n	250 <ArtNetParams::callbackFunction(char const*)+0x250>
 25a:	2303      	movs	r3, #3
 25c:	e7f8      	b.n	250 <ArtNetParams::callbackFunction(char const*)+0x250>
 25e:	233f      	movs	r3, #63	@ 0x3f
 260:	9300      	str	r3, [sp, #0]
 262:	4934      	ldr	r1, [pc, #208]	@ (334 <ArtNetParams::callbackFunction(char const*)+0x334>)
 264:	466b      	mov	r3, sp
 266:	f104 0213 	add.w	r2, r4, #19
 26a:	4630      	mov	r0, r6
 26c:	f7ff fffe 	bl	0 <Sscan::Char(char const*, char const*, char*, unsigned long&)>
 270:	b9e0      	cbnz	r0, 2ac <ArtNetParams::callbackFunction(char const*)+0x2ac>
 272:	9b00      	ldr	r3, [sp, #0]
 274:	4423      	add	r3, r4
 276:	a902      	add	r1, sp, #8
 278:	74d8      	strb	r0, [r3, #19]
 27a:	4b2f      	ldr	r3, [pc, #188]	@ (338 <ArtNetParams::callbackFunction(char const*)+0x338>)
 27c:	6818      	ldr	r0, [r3, #0]
 27e:	f7ff fffe 	bl	0 <ArtNetNode::GetLongNameDefault(char*)>
 282:	f104 0012 	add.w	r0, r4, #18
 286:	a902      	add	r1, sp, #8
 288:	f810 3f01 	ldrb.w	r3, [r0, #1]!
 28c:	f811 2b01 	ldrb.w	r2, [r1], #1
 290:	4293      	cmp	r3, r2
 292:	d001      	beq.n	298 <ArtNetParams::callbackFunction(char const*)+0x298>
 294:	1a9b      	subs	r3, r3, r2
 296:	e001      	b.n	29c <ArtNetParams::callbackFunction(char const*)+0x29c>
 298:	2b00      	cmp	r3, #0
 29a:	d1f5      	bne.n	288 <ArtNetParams::callbackFunction(char const*)+0x288>
 29c:	6822      	ldr	r2, [r4, #0]
 29e:	b913      	cbnz	r3, 2a6 <ArtNetParams::callbackFunction(char const*)+0x2a6>
 2a0:	f022 0240 	bic.w	r2, r2, #64	@ 0x40
 2a4:	e6d3      	b.n	4e <ArtNetParams::callbackFunction(char const*)+0x4e>
 2a6:	f042 0240 	orr.w	r2, r2, #64	@ 0x40
 2aa:	e6d0      	b.n	4e <ArtNetParams::callbackFunction(char const*)+0x4e>
 2ac:	4f23      	ldr	r7, [pc, #140]	@ (33c <ArtNetParams::callbackFunction(char const*)+0x33c>)
 2ae:	2500      	movs	r5, #0
 2b0:	ab01      	add	r3, sp, #4
 2b2:	aa02      	add	r2, sp, #8
 2b4:	4639      	mov	r1, r7
 2b6:	4630      	mov	r0, r6
 2b8:	f8cd 9004 	str.w	r9, [sp, #4]
 2bc:	f7ff fffe 	bl	0 <Sscan::Char(char const*, char const*, char*, unsigned long&)>
 2c0:	2800      	cmp	r0, #0
 2c2:	d13f      	bne.n	344 <ArtNetParams::callbackFunction(char const*)+0x344>
 2c4:	f8b4 309c 	ldrh.w	r3, [r4, #156]	@ 0x9c
 2c8:	006d      	lsls	r5, r5, #1
 2ca:	2203      	movs	r2, #3
 2cc:	40aa      	lsls	r2, r5
 2ce:	ea23 0302 	bic.w	r3, r3, r2
 2d2:	f89d 2008 	ldrb.w	r2, [sp, #8]
 2d6:	f042 0220 	orr.w	r2, r2, #32
 2da:	2a73      	cmp	r2, #115	@ 0x73
 2dc:	d113      	bne.n	306 <ArtNetParams::callbackFunction(char const*)+0x306>
 2de:	f89d 2009 	ldrb.w	r2, [sp, #9]
 2e2:	f042 0220 	orr.w	r2, r2, #32
 2e6:	2a61      	cmp	r2, #97	@ 0x61
 2e8:	d10d      	bne.n	306 <ArtNetParams::callbackFunction(char const*)+0x306>
 2ea:	f89d 200a 	ldrb.w	r2, [sp, #10]
 2ee:	f042 0220 	orr.w	r2, r2, #32
 2f2:	2a63      	cmp	r2, #99	@ 0x63
 2f4:	d107      	bne.n	306 <ArtNetParams::callbackFunction(char const*)+0x306>
 2f6:	f89d 000b 	ldrb.w	r0, [sp, #11]
 2fa:	f040 0020 	orr.w	r0, r0, #32
 2fe:	f1a0 026e 	sub.w	r2, r0, #110	@ 0x6e
 302:	4250      	negs	r0, r2
 304:	4150      	adcs	r0, r2
 306:	40a8      	lsls	r0, r5
 308:	4303      	orrs	r3, r0
 30a:	f8a4 309c 	strh.w	r3, [r4, #156]	@ 0x9c
 30e:	e697      	b.n	40 <ArtNetParams::callbackFunction(char const*)+0x40>
	...
 324:	00000008 	.word	0x00000008
 328:	0000000d 	.word	0x0000000d
 32c:	00000011 	.word	0x00000011
 330:	00000014 	.word	0x00000014
	...
 344:	3501      	adds	r5, #1
 346:	2d04      	cmp	r5, #4
 348:	f107 0710 	add.w	r7, r7, #16
 34c:	d1b0      	bne.n	2b0 <ArtNetParams::callbackFunction(char const*)+0x2b0>
 34e:	490d      	ldr	r1, [pc, #52]	@ (384 <ArtNetParams::callbackFunction(char const*)+0x384>)
 350:	aa01      	add	r2, sp, #4
 352:	4630      	mov	r0, r6
 354:	f7ff fffe 	bl	0 <Sscan::Uint8(char const*, char const*, unsigned char&)>
 358:	b948      	cbnz	r0, 36e <ArtNetParams::callbackFunction(char const*)+0x36e>
 35a:	f44f 3200 	mov.w	r2, #131072	@ 0x20000
 35e:	f89d 1004 	ldrb.w	r1, [sp, #4]
 362:	4620      	mov	r0, r4
 364:	b013      	add	sp, #76	@ 0x4c
 366:	e8bd 4ff0 	ldmia.w	sp!, {r4, r5, r6, r7, r8, r9, sl, fp, lr}
 36a:	f7ff bffe 	b.w	0 <ArtNetParams::callbackFunction(char const*)>
 36e:	4906      	ldr	r1, [pc, #24]	@ (388 <ArtNetParams::callbackFunction(char const*)+0x388>)
 370:	aa01      	add	r2, sp, #4
 372:	4630      	mov	r0, r6
 374:	f7ff fffe 	bl	0 <Sscan::Uint8(char const*, char const*, unsigned char&)>
 378:	2800      	cmp	r0, #0
 37a:	f47f ae61 	bne.w	40 <ArtNetParams::callbackFunction(char const*)+0x40>
 37e:	f44f 6200 	mov.w	r2, #2048	@ 0x800
 382:	e7ec      	b.n	35e <ArtNetParams::callbackFunction(char const*)+0x35e>
	...

Disassembly of section .text._ZN12ArtNetParams22staticCallbackFunctionEPvPKc:

00000000 <ArtNetParams::staticCallbackFunction(void*, char const*)>:
   0:	f7ff bffe 	b.w	0 <ArtNetParams::staticCallbackFunction(void*, char const*)>

Disassembly of section .text._ZN12ArtNetParams7BuilderEPKN12artnetparams6ParamsEPcmRm:

00000000 <ArtNetParams::Builder(artnetparams::Params const*, char*, unsigned long, unsigned long&)>:
   0:	e92d 4ff0 	stmdb	sp!, {r4, r5, r6, r7, r8, r9, sl, fp, lr}
   4:	4604      	mov	r4, r0
   6:	b089      	sub	sp, #36	@ 0x24
   8:	4615      	mov	r5, r2
   a:	461e      	mov	r6, r3
   c:	2900      	cmp	r1, #0
   e:	f000 8081 	beq.w	114 <ArtNetParams::Builder(artnetparams::Params const*, char*, unsigned long, unsigned long&)+0x114>
  12:	22dc      	movs	r2, #220	@ 0xdc
  14:	f7ff fffe 	bl	0 <memmove>
  18:	462a      	mov	r2, r5
  1a:	4625      	mov	r5, r4
  1c:	4633      	mov	r3, r6
  1e:	498d      	ldr	r1, [pc, #564]	@ (254 <ArtNetParams::Builder(artnetparams::Params const*, char*, unsigned long, unsigned long&)+0x254>)
  20:	a805      	add	r0, sp, #20
  22:	f7ff fffe 	bl	0 <PropertiesBuilder::PropertiesBuilder(char const*, char*, unsigned long)>
  26:	f855 3b13 	ldr.w	r3, [r5], #19
  2a:	065b      	lsls	r3, r3, #25
  2c:	d404      	bmi.n	38 <ArtNetParams::Builder(artnetparams::Params const*, char*, unsigned long, unsigned long&)+0x38>
  2e:	4b8a      	ldr	r3, [pc, #552]	@ (258 <ArtNetParams::Builder(artnetparams::Params const*, char*, unsigned long, unsigned long&)+0x258>)
  30:	4629      	mov	r1, r5
  32:	6818      	ldr	r0, [r3, #0]
  34:	f7ff fffe 	bl	0 <ArtNetNode::GetLongNameDefault(char*)>
  38:	6823      	ldr	r3, [r4, #0]
  3a:	4988      	ldr	r1, [pc, #544]	@ (25c <ArtNetParams::Builder(artnetparams::Params const*, char*, unsigned long, unsigned long&)+0x25c>)
  3c:	f3c3 1380 	ubfx	r3, r3, #6, #1
  40:	462a      	mov	r2, r5
  42:	a805      	add	r0, sp, #20
  44:	f7ff fffe 	bl	0 <ArtNetParams::Builder(artnetparams::Params const*, char*, unsigned long, unsigned long&)>
  48:	7ca3      	ldrb	r3, [r4, #18]
  4a:	2b01      	cmp	r3, #1
  4c:	d065      	beq.n	11a <ArtNetParams::Builder(artnetparams::Params const*, char*, unsigned long, unsigned long&)+0x11a>
  4e:	2b02      	cmp	r3, #2
  50:	d065      	beq.n	11e <ArtNetParams::Builder(artnetparams::Params const*, char*, unsigned long, unsigned long&)+0x11e>
  52:	4a83      	ldr	r2, [pc, #524]	@ (260 <ArtNetParams::Builder(artnetparams::Params const*, char*, unsigned long, unsigned long&)+0x260>)
  54:	4983      	ldr	r1, [pc, #524]	@ (264 <ArtNetParams::Builder(artnetparams::Params const*, char*, unsigned long, unsigned long&)+0x264>)
  56:	2b03      	cmp	r3, #3
  58:	bf18      	it	ne
  5a:	460a      	movne	r2, r1
  5c:	46a0      	mov	r8, r4
  5e:	4982      	ldr	r1, [pc, #520]	@ (268 <ArtNetParams::Builder(artnetparams::Params const*, char*, unsigned long, unsigned long&)+0x268>)
  60:	f858 3b53 	ldr.w	r3, [r8], #83
  64:	f8df a250 	ldr.w	sl, [pc, #592]	@ 2b8 <ArtNetParams::Builder(artnetparams::Params const*, char*, unsigned long, unsigned long&)+0x2b8>
  68:	f8df 9250 	ldr.w	r9, [pc, #592]	@ 2bc <ArtNetParams::Builder(artnetparams::Params const*, char*, unsigned long, unsigned long&)+0x2bc>
  6c:	f8df b250 	ldr.w	fp, [pc, #592]	@ 2c0 <ArtNetParams::Builder(artnetparams::Params const*, char*, unsigned long, unsigned long&)+0x2c0>
  70:	f3c3 1340 	ubfx	r3, r3, #5, #1
  74:	a805      	add	r0, sp, #20
  76:	f7ff fffe 	bl	0 <ArtNetParams::Builder(artnetparams::Params const*, char*, unsigned long, unsigned long&)>
  7a:	2500      	movs	r5, #0
  7c:	f8d9 3000 	ldr.w	r3, [r9]
  80:	42ab      	cmp	r3, r5
  82:	d84e      	bhi.n	122 <ArtNetParams::Builder(artnetparams::Params const*, char*, unsigned long, unsigned long&)+0x122>
  84:	4979      	ldr	r1, [pc, #484]	@ (26c <ArtNetParams::Builder(artnetparams::Params const*, char*, unsigned long, unsigned long&)+0x26c>)
  86:	f8df 823c 	ldr.w	r8, [pc, #572]	@ 2c4 <ArtNetParams::Builder(artnetparams::Params const*, char*, unsigned long, unsigned long&)+0x2c4>
  8a:	4e79      	ldr	r6, [pc, #484]	@ (270 <ArtNetParams::Builder(artnetparams::Params const*, char*, unsigned long, unsigned long&)+0x270>)
  8c:	4f79      	ldr	r7, [pc, #484]	@ (274 <ArtNetParams::Builder(artnetparams::Params const*, char*, unsigned long, unsigned long&)+0x274>)
  8e:	a805      	add	r0, sp, #20
  90:	f7ff fffe 	bl	0 <PropertiesBuilder::AddComment(char const*)>
  94:	2500      	movs	r5, #0
  96:	f8d9 3000 	ldr.w	r3, [r9]
  9a:	42ab      	cmp	r3, r5
  9c:	f200 80b2 	bhi.w	204 <ArtNetParams::Builder(artnetparams::Params const*, char*, unsigned long, unsigned long&)+0x204>
  a0:	4975      	ldr	r1, [pc, #468]	@ (278 <ArtNetParams::Builder(artnetparams::Params const*, char*, unsigned long, unsigned long&)+0x278>)
  a2:	f8df 8224 	ldr.w	r8, [pc, #548]	@ 2c8 <ArtNetParams::Builder(artnetparams::Params const*, char*, unsigned long, unsigned long&)+0x2c8>
  a6:	4e75      	ldr	r6, [pc, #468]	@ (27c <ArtNetParams::Builder(artnetparams::Params const*, char*, unsigned long, unsigned long&)+0x27c>)
  a8:	4f75      	ldr	r7, [pc, #468]	@ (280 <ArtNetParams::Builder(artnetparams::Params const*, char*, unsigned long, unsigned long&)+0x280>)
  aa:	a805      	add	r0, sp, #20
  ac:	f7ff fffe 	bl	0 <PropertiesBuilder::AddComment(char const*)>
  b0:	2500      	movs	r5, #0
  b2:	f8d9 3000 	ldr.w	r3, [r9]
  b6:	42ab      	cmp	r3, r5
  b8:	f200 80b8 	bhi.w	22c <ArtNetParams::Builder(artnetparams::Params const*, char*, unsigned long, unsigned long&)+0x22c>
  bc:	6822      	ldr	r2, [r4, #0]
  be:	4971      	ldr	r1, [pc, #452]	@ (284 <ArtNetParams::Builder(artnetparams::Params const*, char*, unsigned long, unsigned long&)+0x284>)
  c0:	f3c2 4240 	ubfx	r2, r2, #17, #1
  c4:	a805      	add	r0, sp, #20
  c6:	f7ff fffe 	bl	0 <ArtNetParams::Builder(artnetparams::Params const*, char*, unsigned long, unsigned long&)>
  ca:	496f      	ldr	r1, [pc, #444]	@ (288 <ArtNetParams::Builder(artnetparams::Params const*, char*, unsigned long, unsigned long&)+0x288>)
  cc:	a805      	add	r0, sp, #20
  ce:	f7ff fffe 	bl	0 <PropertiesBuilder::AddComment(char const*)>
  d2:	6822      	ldr	r2, [r4, #0]
  d4:	496d      	ldr	r1, [pc, #436]	@ (28c <ArtNetParams::Builder(artnetparams::Params const*, char*, unsigned long, unsigned long&)+0x28c>)
  d6:	f3c2 22c0 	ubfx	r2, r2, #11, #1
  da:	a805      	add	r0, sp, #20
  dc:	f7ff fffe 	bl	0 <ArtNetParams::Builder(artnetparams::Params const*, char*, unsigned long, unsigned long&)>
  e0:	f89d 301c 	ldrb.w	r3, [sp, #28]
  e4:	b17b      	cbz	r3, 106 <ArtNetParams::Builder(artnetparams::Params const*, char*, unsigned long, unsigned long&)+0x106>
  e6:	f8bd 201a 	ldrh.w	r2, [sp, #26]
  ea:	9b05      	ldr	r3, [sp, #20]
  ec:	4413      	add	r3, r2
  ee:	227d      	movs	r2, #125	@ 0x7d
  f0:	f803 2c01 	strb.w	r2, [r3, #-1]
  f4:	f8bd 301a 	ldrh.w	r3, [sp, #26]
  f8:	9905      	ldr	r1, [sp, #20]
  fa:	54ca      	strb	r2, [r1, r3]
  fc:	f8bd 301a 	ldrh.w	r3, [sp, #26]
 100:	3301      	adds	r3, #1
 102:	f8ad 301a 	strh.w	r3, [sp, #26]
 106:	f8bd 201a 	ldrh.w	r2, [sp, #26]
 10a:	9b12      	ldr	r3, [sp, #72]	@ 0x48
 10c:	601a      	str	r2, [r3, #0]
 10e:	b009      	add	sp, #36	@ 0x24
 110:	e8bd 8ff0 	ldmia.w	sp!, {r4, r5, r6, r7, r8, r9, sl, fp, pc}
 114:	f7ff fffe 	bl	0 <ArtNetParams::Builder(artnetparams::Params const*, char*, unsigned long, unsigned long&)>
 118:	e77e      	b.n	18 <ArtNetParams::Builder(artnetparams::Params const*, char*, unsigned long, unsigned long&)+0x18>
 11a:	4a5d      	ldr	r2, [pc, #372]	@ (290 <ArtNetParams::Builder(artnetparams::Params const*, char*, unsigned long, unsigned long&)+0x290>)
 11c:	e79e      	b.n	5c <ArtNetParams::Builder(artnetparams::Params const*, char*, unsigned long, unsigned long&)+0x5c>
 11e:	4a5d      	ldr	r2, [pc, #372]	@ (294 <ArtNetParams::Builder(artnetparams::Params const*, char*, unsigned long, unsigned long&)+0x294>)
 120:	e79c      	b.n	5c <ArtNetParams::Builder(artnetparams::Params const*, char*, unsigned long, unsigned long&)+0x5c>
 122:	f8db 6000 	ldr.w	r6, [fp]
 126:	442e      	add	r6, r5
 128:	2e1f      	cmp	r6, #31
 12a:	d8ab      	bhi.n	84 <ArtNetParams::Builder(artnetparams::Params const*, char*, unsigned long, unsigned long&)+0x84>
 12c:	006b      	lsls	r3, r5, #1
 12e:	f8bd 101a 	ldrh.w	r1, [sp, #26]
 132:	f8bd 7018 	ldrh.w	r7, [sp, #24]
 136:	9303      	str	r3, [sp, #12]
 138:	eb04 0345 	add.w	r3, r4, r5, lsl #1
 13c:	42b9      	cmp	r1, r7
 13e:	f8b3 2005 	ldrh.w	r2, [r3, #5]
 142:	f8d4 c000 	ldr.w	ip, [r4]
 146:	d220      	bcs.n	18a <ArtNetParams::Builder(artnetparams::Params const*, char*, unsigned long, unsigned long&)+0x18a>
 148:	2002      	movs	r0, #2
 14a:	fa00 fe05 	lsl.w	lr, r0, r5
 14e:	4b52      	ldr	r3, [pc, #328]	@ (298 <ArtNetParams::Builder(artnetparams::Params const*, char*, unsigned long, unsigned long&)+0x298>)
 150:	9805      	ldr	r0, [sp, #20]
 152:	ea3e 0c0c 	bics.w	ip, lr, ip
 156:	4408      	add	r0, r1
 158:	eba7 0701 	sub.w	r7, r7, r1
 15c:	eb03 1305 	add.w	r3, r3, r5, lsl #4
 160:	f89d 101c 	ldrb.w	r1, [sp, #28]
 164:	d003      	beq.n	16e <ArtNetParams::Builder(artnetparams::Params const*, char*, unsigned long, unsigned long&)+0x16e>
 166:	b921      	cbnz	r1, 172 <ArtNetParams::Builder(artnetparams::Params const*, char*, unsigned long, unsigned long&)+0x172>
 168:	9200      	str	r2, [sp, #0]
 16a:	4a4c      	ldr	r2, [pc, #304]	@ (29c <ArtNetParams::Builder(artnetparams::Params const*, char*, unsigned long, unsigned long&)+0x29c>)
 16c:	e003      	b.n	176 <ArtNetParams::Builder(artnetparams::Params const*, char*, unsigned long, unsigned long&)+0x176>
 16e:	2900      	cmp	r1, #0
 170:	d037      	beq.n	1e2 <ArtNetParams::Builder(artnetparams::Params const*, char*, unsigned long, unsigned long&)+0x1e2>
 172:	9200      	str	r2, [sp, #0]
 174:	4a4a      	ldr	r2, [pc, #296]	@ (2a0 <ArtNetParams::Builder(artnetparams::Params const*, char*, unsigned long, unsigned long&)+0x2a0>)
 176:	4639      	mov	r1, r7
 178:	f7ff fffe 	bl	0 <snprintf>
 17c:	4287      	cmp	r7, r0
 17e:	bfa2      	ittt	ge
 180:	f8bd 301a 	ldrhge.w	r3, [sp, #26]
 184:	18c0      	addge	r0, r0, r3
 186:	f8ad 001a 	strhge.w	r0, [sp, #26]
 18a:	f8b4 300d 	ldrh.w	r3, [r4, #13]
 18e:	4945      	ldr	r1, [pc, #276]	@ (2a4 <ArtNetParams::Builder(artnetparams::Params const*, char*, unsigned long, unsigned long&)+0x2a4>)
 190:	006a      	lsls	r2, r5, #1
 192:	4113      	asrs	r3, r2
 194:	f013 0303 	ands.w	r3, r3, #3
 198:	f04f 0212 	mov.w	r2, #18
 19c:	fb02 1105 	mla	r1, r2, r5, r1
 1a0:	d022      	beq.n	1e8 <ArtNetParams::Builder(artnetparams::Params const*, char*, unsigned long, unsigned long&)+0x1e8>
 1a2:	4a41      	ldr	r2, [pc, #260]	@ (2a8 <ArtNetParams::Builder(artnetparams::Params const*, char*, unsigned long, unsigned long&)+0x2a8>)
 1a4:	4841      	ldr	r0, [pc, #260]	@ (2ac <ArtNetParams::Builder(artnetparams::Params const*, char*, unsigned long, unsigned long&)+0x2ac>)
 1a6:	2b02      	cmp	r3, #2
 1a8:	bf18      	it	ne
 1aa:	4602      	movne	r2, r0
 1ac:	3b01      	subs	r3, #1
 1ae:	bf18      	it	ne
 1b0:	2301      	movne	r3, #1
 1b2:	a805      	add	r0, sp, #20
 1b4:	f7ff fffe 	bl	0 <ArtNetParams::Builder(artnetparams::Params const*, char*, unsigned long, unsigned long&)>
 1b8:	6822      	ldr	r2, [r4, #0]
 1ba:	2380      	movs	r3, #128	@ 0x80
 1bc:	40ab      	lsls	r3, r5
 1be:	401a      	ands	r2, r3
 1c0:	4293      	cmp	r3, r2
 1c2:	bf0c      	ite	eq
 1c4:	2701      	moveq	r7, #1
 1c6:	2700      	movne	r7, #0
 1c8:	d110      	bne.n	1ec <ArtNetParams::Builder(artnetparams::Params const*, char*, unsigned long, unsigned long&)+0x1ec>
 1ca:	4642      	mov	r2, r8
 1cc:	4651      	mov	r1, sl
 1ce:	463b      	mov	r3, r7
 1d0:	a805      	add	r0, sp, #20
 1d2:	f7ff fffe 	bl	0 <ArtNetParams::Builder(artnetparams::Params const*, char*, unsigned long, unsigned long&)>
 1d6:	3501      	adds	r5, #1
 1d8:	f10a 0a0e 	add.w	sl, sl, #14
 1dc:	f108 0812 	add.w	r8, r8, #18
 1e0:	e74c      	b.n	7c <ArtNetParams::Builder(artnetparams::Params const*, char*, unsigned long, unsigned long&)+0x7c>
 1e2:	9200      	str	r2, [sp, #0]
 1e4:	4a32      	ldr	r2, [pc, #200]	@ (2b0 <ArtNetParams::Builder(artnetparams::Params const*, char*, unsigned long, unsigned long&)+0x2b0>)
 1e6:	e7c6      	b.n	176 <ArtNetParams::Builder(artnetparams::Params const*, char*, unsigned long, unsigned long&)+0x176>
 1e8:	4a32      	ldr	r2, [pc, #200]	@ (2b4 <ArtNetParams::Builder(artnetparams::Params const*, char*, unsigned long, unsigned long&)+0x2b4>)
 1ea:	e7df      	b.n	1ac <ArtNetParams::Builder(artnetparams::Params const*, char*, unsigned long, unsigned long&)+0x1ac>
 1ec:	2328      	movs	r3, #40	@ 0x28
 1ee:	435e      	muls	r6, r3
 1f0:	4b19      	ldr	r3, [pc, #100]	@ (258 <ArtNetParams::Builder(artnetparams::Params const*, char*, unsigned long, unsigned long&)+0x258>)
 1f2:	6819      	ldr	r1, [r3, #0]
 1f4:	f606 36fc 	addw	r6, r6, #3068	@ 0xbfc
 1f8:	2212      	movs	r2, #18
 1fa:	4431      	add	r1, r6
 1fc:	4640      	mov	r0, r8
 1fe:	f7ff fffe 	bl	0 <memmove>
 202:	e7e2      	b.n	1ca <ArtNetParams::Builder(artnetparams::Params const*, char*, unsigned long, unsigned long&)+0x1ca>
 204:	f8b4 300f 	ldrh.w	r3, [r4, #15]
 208:	006a      	lsls	r2, r5, #1
 20a:	4113      	asrs	r3, r2
 20c:	f003 0303 	and.w	r3, r3, #3
 210:	2b00      	cmp	r3, #0
 212:	4641      	mov	r1, r8
 214:	bf15      	itete	ne
 216:	2301      	movne	r3, #1
 218:	2300      	moveq	r3, #0
 21a:	4632      	movne	r2, r6
 21c:	463a      	moveq	r2, r7
 21e:	a805      	add	r0, sp, #20
 220:	f7ff fffe 	bl	0 <ArtNetParams::Builder(artnetparams::Params const*, char*, unsigned long, unsigned long&)>
 224:	3501      	adds	r5, #1
 226:	f108 0812 	add.w	r8, r8, #18
 22a:	e734      	b.n	96 <ArtNetParams::Builder(artnetparams::Params const*, char*, unsigned long, unsigned long&)+0x96>
 22c:	f8b4 309c 	ldrh.w	r3, [r4, #156]	@ 0x9c
 230:	006a      	lsls	r2, r5, #1
 232:	4113      	asrs	r3, r2
 234:	f003 0303 	and.w	r3, r3, #3
 238:	2b00      	cmp	r3, #0
 23a:	4641      	mov	r1, r8
 23c:	bf15      	itete	ne
 23e:	2301      	movne	r3, #1
 240:	2300      	moveq	r3, #0
 242:	4632      	movne	r2, r6
 244:	463a      	moveq	r2, r7
 246:	a805      	add	r0, sp, #20
 248:	f7ff fffe 	bl	0 <ArtNetParams::Builder(artnetparams::Params const*, char*, unsigned long, unsigned long&)>
 24c:	3501      	adds	r5, #1
 24e:	f108 0810 	add.w	r8, r8, #16
 252:	e72e      	b.n	b2 <ArtNetParams::Builder(artnetparams::Params const*, char*, unsigned long, unsigned long&)+0xb2>
	...
 260:	00000014 	.word	0x00000014
 264:	00000008 	.word	0x00000008
 268:	00000000 	.word	0x00000000
 26c:	00000029 	.word	0x00000029
 270:	00000015 	.word	0x00000015
 274:	00000019 	.word	0x00000019
 278:	00000034 	.word	0x00000034
 27c:	0000001d 	.word	0x0000001d
 280:	00000022 	.word	0x00000022
 284:	00000000 	.word	0x00000000
 288:	0000003e 	.word	0x0000003e
 28c:	00000000 	.word	0x00000000
 290:	0000000d 	.word	0x0000000d
 294:	00000011 	.word	0x00000011
 298:	00000000 	.word	0x00000000
 29c:	00000010 	.word	0x00000010
	...
 2a8:	0000000d 	.word	0x0000000d
 2ac:	00000006 	.word	0x00000006
 2b0:	00000009 	.word	0x00000009
	...

Disassembly of section .text._ZN12ArtNetParams3SetEv:

00000000 <ArtNetParams::Set()>:
   0:	e92d 4ff7 	stmdb	sp!, {r0, r1, r2, r4, r5, r6, r7, r8, r9, sl, fp, lr}
   4:	f8df a104 	ldr.w	sl, [pc, #260]	@ 10c <ArtNetParams::Set()+0x10c>
   8:	f8df 9104 	ldr.w	r9, [pc, #260]	@ 110 <ArtNetParams::Set()+0x110>
   c:	f8da 3000 	ldr.w	r3, [sl]
  10:	2b20      	cmp	r3, #32
  12:	4605      	mov	r5, r0
  14:	d806      	bhi.n	24 <ArtNetParams::Set()+0x24>
  16:	f1c3 0320 	rsb	r3, r3, #32
  1a:	2b04      	cmp	r3, #4
  1c:	bf28      	it	cs
  1e:	2304      	movcs	r3, #4
  20:	f8c9 3000 	str.w	r3, [r9]
  24:	4b38      	ldr	r3, [pc, #224]	@ (108 <ArtNetParams::Set()+0x108>)
  26:	681c      	ldr	r4, [r3, #0]
  28:	682b      	ldr	r3, [r5, #0]
  2a:	0658      	lsls	r0, r3, #25
  2c:	d504      	bpl.n	38 <ArtNetParams::Set()+0x38>
  2e:	f105 0113 	add.w	r1, r5, #19
  32:	4620      	mov	r0, r4
  34:	f7ff fffe 	bl	0 <ArtNetNode::SetLongName(char const*)>
  38:	f105 0853 	add.w	r8, r5, #83	@ 0x53
  3c:	2700      	movs	r7, #0
  3e:	f44f 0b80 	mov.w	fp, #4194304	@ 0x400000
  42:	e03f      	b.n	c4 <ArtNetParams::Set()+0xc4>
  44:	f8da 6000 	ldr.w	r6, [sl]
  48:	443e      	add	r6, r7
  4a:	2e1f      	cmp	r6, #31
  4c:	d83e      	bhi.n	cc <ArtNetParams::Set()+0xcc>
  4e:	682a      	ldr	r2, [r5, #0]
  50:	2380      	movs	r3, #128	@ 0x80
  52:	40bb      	lsls	r3, r7
  54:	4393      	bics	r3, r2
  56:	bf0c      	ite	eq
  58:	4642      	moveq	r2, r8
  5a:	2200      	movne	r2, #0
  5c:	4631      	mov	r1, r6
  5e:	4620      	mov	r0, r4
  60:	f7ff fffe 	bl	0 <ArtNetNode::SetShortName(unsigned long, char const*)>
  64:	f8b5 200f 	ldrh.w	r2, [r5, #15]
  68:	007b      	lsls	r3, r7, #1
  6a:	411a      	asrs	r2, r3
  6c:	f002 0203 	and.w	r2, r2, #3
  70:	4631      	mov	r1, r6
  72:	4620      	mov	r0, r4
  74:	9301      	str	r3, [sp, #4]
  76:	f7ff fffe 	bl	0 <ArtNetNode::SetMergeMode(unsigned long, lightset::MergeMode)>
  7a:	9b01      	ldr	r3, [sp, #4]
  7c:	f8b5 209c 	ldrh.w	r2, [r5, #156]	@ 0x9c
  80:	411a      	asrs	r2, r3
  82:	f002 0203 	and.w	r2, r2, #3
  86:	4631      	mov	r1, r6
  88:	4620      	mov	r0, r4
  8a:	f7ff fffe 	bl	0 <ArtNetNode::SetPortProtocol4(unsigned long, artnet::PortProtocol)>
  8e:	682a      	ldr	r2, [r5, #0]
  90:	fa0b f307 	lsl.w	r3, fp, r7
  94:	4393      	bics	r3, r2
  96:	d112      	bne.n	be <ArtNetParams::Set()+0xbe>
  98:	442e      	add	r6, r5
  9a:	f504 5380 	add.w	r3, r4, #4096	@ 0x1000
  9e:	f896 20b0 	ldrb.w	r2, [r6, #176]	@ 0xb0
  a2:	f883 2816 	strb.w	r2, [r3, #2070]	@ 0x816
  a6:	1e51      	subs	r1, r2, #1
  a8:	4623      	mov	r3, r4
  aa:	f504 70c0 	add.w	r0, r4, #384	@ 0x180
  ae:	b2c9      	uxtb	r1, r1
  b0:	29c7      	cmp	r1, #199	@ 0xc7
  b2:	bf98      	it	ls
  b4:	f883 2a39 	strbls.w	r2, [r3, #2617]	@ 0xa39
  b8:	330c      	adds	r3, #12
  ba:	4283      	cmp	r3, r0
  bc:	d1f8      	bne.n	b0 <ArtNetParams::Set()+0xb0>
  be:	3701      	adds	r7, #1
  c0:	f108 0812 	add.w	r8, r8, #18
  c4:	f8d9 3000 	ldr.w	r3, [r9]
  c8:	42bb      	cmp	r3, r7
  ca:	d8bb      	bhi.n	44 <ArtNetParams::Set()+0x44>
  cc:	7ca9      	ldrb	r1, [r5, #18]
  ce:	2903      	cmp	r1, #3
  d0:	bf9a      	itte	ls
  d2:	3108      	addls	r1, #8
  d4:	b2c9      	uxtbls	r1, r1
  d6:	2108      	movhi	r1, #8
  d8:	4620      	mov	r0, r4
  da:	f7ff fffe 	bl	0 <ArtNetNode::SetFailSafe(artnetnode::FailSafe)>
  de:	682a      	ldr	r2, [r5, #0]
  e0:	0391      	lsls	r1, r2, #14
  e2:	bf42      	ittt	mi
  e4:	f504 5380 	addmi.w	r3, r4, #4096	@ 0x1000
  e8:	2101      	movmi	r1, #1
  ea:	f883 10ec 	strbmi.w	r1, [r3, #236]	@ 0xec
  ee:	0513      	lsls	r3, r2, #20
  f0:	bf41      	itttt	mi
  f2:	f504 5280 	addmi.w	r2, r4, #4096	@ 0x1000
  f6:	2301      	movmi	r3, #1
  f8:	f882 3140 	strbmi.w	r3, [r2, #320]	@ 0x140
  fc:	f884 302e 	strbmi.w	r3, [r4, #46]	@ 0x2e
 100:	b003      	add	sp, #12
 102:	e8bd 8ff0 	ldmia.w	sp!, {r4, r5, r6, r7, r8, r9, sl, fp, pc}
 106:	bf00      	nop
	...

Disassembly of section .text._ZN12ArtNetParams4DumpEv:

00000000 <ArtNetParams::Dump()>:
   0:	e92d 43f7 	stmdb	sp!, {r0, r1, r2, r4, r5, r6, r7, r8, r9, lr}
   4:	4604      	mov	r4, r0
   6:	4a6a      	ldr	r2, [pc, #424]	@ (1b0 <ArtNetParams::Dump()+0x1b0>)
   8:	4b6a      	ldr	r3, [pc, #424]	@ (1b4 <ArtNetParams::Dump()+0x1b4>)
   a:	496b      	ldr	r1, [pc, #428]	@ (1b8 <ArtNetParams::Dump()+0x1b8>)
   c:	486b      	ldr	r0, [pc, #428]	@ (1bc <ArtNetParams::Dump()+0x1bc>)
   e:	f7ff fffe 	bl	0 <printf>
  12:	7ca2      	ldrb	r2, [r4, #18]
  14:	2a01      	cmp	r2, #1
  16:	d05d      	beq.n	d4 <ArtNetParams::Dump()+0xd4>
  18:	2a02      	cmp	r2, #2
  1a:	d05d      	beq.n	d8 <ArtNetParams::Dump()+0xd8>
  1c:	4b68      	ldr	r3, [pc, #416]	@ (1c0 <ArtNetParams::Dump()+0x1c0>)
  1e:	4969      	ldr	r1, [pc, #420]	@ (1c4 <ArtNetParams::Dump()+0x1c4>)
  20:	2a03      	cmp	r2, #3
  22:	bf18      	it	ne
  24:	460b      	movne	r3, r1
  26:	4968      	ldr	r1, [pc, #416]	@ (1c8 <ArtNetParams::Dump()+0x1c8>)
  28:	4868      	ldr	r0, [pc, #416]	@ (1cc <ArtNetParams::Dump()+0x1cc>)
  2a:	4e69      	ldr	r6, [pc, #420]	@ (1d0 <ArtNetParams::Dump()+0x1d0>)
  2c:	f7ff fffe 	bl	0 <printf>
  30:	f104 0553 	add.w	r5, r4, #83	@ 0x53
  34:	f104 079b 	add.w	r7, r4, #155	@ 0x9b
  38:	462a      	mov	r2, r5
  3a:	4631      	mov	r1, r6
  3c:	4865      	ldr	r0, [pc, #404]	@ (1d4 <ArtNetParams::Dump()+0x1d4>)
  3e:	3512      	adds	r5, #18
  40:	f7ff fffe 	bl	0 <printf>
  44:	42bd      	cmp	r5, r7
  46:	f106 060e 	add.w	r6, r6, #14
  4a:	d1f5      	bne.n	38 <ArtNetParams::Dump()+0x38>
  4c:	4962      	ldr	r1, [pc, #392]	@ (1d8 <ArtNetParams::Dump()+0x1d8>)
  4e:	4861      	ldr	r0, [pc, #388]	@ (1d4 <ArtNetParams::Dump()+0x1d4>)
  50:	4e62      	ldr	r6, [pc, #392]	@ (1dc <ArtNetParams::Dump()+0x1dc>)
  52:	4f63      	ldr	r7, [pc, #396]	@ (1e0 <ArtNetParams::Dump()+0x1e0>)
  54:	f104 0213 	add.w	r2, r4, #19
  58:	f7ff fffe 	bl	0 <printf>
  5c:	4961      	ldr	r1, [pc, #388]	@ (1e4 <ArtNetParams::Dump()+0x1e4>)
  5e:	4862      	ldr	r0, [pc, #392]	@ (1e8 <ArtNetParams::Dump()+0x1e8>)
  60:	f7ff fffe 	bl	0 <printf>
  64:	2500      	movs	r5, #0
  66:	eb04 0345 	add.w	r3, r4, r5, lsl #1
  6a:	4631      	mov	r1, r6
  6c:	f8b3 2005 	ldrh.w	r2, [r3, #5]
  70:	4638      	mov	r0, r7
  72:	3501      	adds	r5, #1
  74:	f7ff fffe 	bl	0 <printf>
  78:	2d04      	cmp	r5, #4
  7a:	f106 0610 	add.w	r6, r6, #16
  7e:	d1f2      	bne.n	66 <ArtNetParams::Dump()+0x66>
  80:	4e5a      	ldr	r6, [pc, #360]	@ (1ec <ArtNetParams::Dump()+0x1ec>)
  82:	f8df 91a8 	ldr.w	r9, [pc, #424]	@ 22c <ArtNetParams::Dump()+0x22c>
  86:	f8df 81a8 	ldr.w	r8, [pc, #424]	@ 230 <ArtNetParams::Dump()+0x230>
  8a:	4f52      	ldr	r7, [pc, #328]	@ (1d4 <ArtNetParams::Dump()+0x1d4>)
  8c:	2500      	movs	r5, #0
  8e:	f8b4 300f 	ldrh.w	r3, [r4, #15]
  92:	412b      	asrs	r3, r5
  94:	f013 0f03 	tst.w	r3, #3
  98:	bf14      	ite	ne
  9a:	464a      	movne	r2, r9
  9c:	4642      	moveq	r2, r8
  9e:	4631      	mov	r1, r6
  a0:	4638      	mov	r0, r7
  a2:	3502      	adds	r5, #2
  a4:	f7ff fffe 	bl	0 <printf>
  a8:	2d08      	cmp	r5, #8
  aa:	f106 0612 	add.w	r6, r6, #18
  ae:	d1ee      	bne.n	8e <ArtNetParams::Dump()+0x8e>
  b0:	4d4f      	ldr	r5, [pc, #316]	@ (1f0 <ArtNetParams::Dump()+0x1f0>)
  b2:	4a50      	ldr	r2, [pc, #320]	@ (1f4 <ArtNetParams::Dump()+0x1f4>)
  b4:	f8df 811c 	ldr.w	r8, [pc, #284]	@ 1d4 <ArtNetParams::Dump()+0x1d4>
  b8:	4f4f      	ldr	r7, [pc, #316]	@ (1f8 <ArtNetParams::Dump()+0x1f8>)
  ba:	2600      	movs	r6, #0
  bc:	4629      	mov	r1, r5
  be:	4640      	mov	r0, r8
  c0:	3601      	adds	r6, #1
  c2:	f7ff fffe 	bl	0 <printf>
  c6:	2e04      	cmp	r6, #4
  c8:	f105 0510 	add.w	r5, r5, #16
  cc:	d006      	beq.n	dc <ArtNetParams::Dump()+0xdc>
  ce:	4629      	mov	r1, r5
  d0:	463a      	mov	r2, r7
  d2:	e7f4      	b.n	be <ArtNetParams::Dump()+0xbe>
  d4:	4b49      	ldr	r3, [pc, #292]	@ (1fc <ArtNetParams::Dump()+0x1fc>)
  d6:	e7a6      	b.n	26 <ArtNetParams::Dump()+0x26>
  d8:	4b49      	ldr	r3, [pc, #292]	@ (200 <ArtNetParams::Dump()+0x200>)
  da:	e7a4      	b.n	26 <ArtNetParams::Dump()+0x26>
  dc:	f8df 9154 	ldr.w	r9, [pc, #340]	@ 234 <ArtNetParams::Dump()+0x234>
  e0:	4e48      	ldr	r6, [pc, #288]	@ (204 <ArtNetParams::Dump()+0x204>)
  e2:	4f49      	ldr	r7, [pc, #292]	@ (208 <ArtNetParams::Dump()+0x208>)
  e4:	f8df 8150 	ldr.w	r8, [pc, #336]	@ 238 <ArtNetParams::Dump()+0x238>
  e8:	2500      	movs	r5, #0
  ea:	f8b4 200d 	ldrh.w	r2, [r4, #13]
  ee:	412a      	asrs	r2, r5
  f0:	f012 0203 	ands.w	r2, r2, #3
  f4:	d059      	beq.n	1aa <ArtNetParams::Dump()+0x1aa>
  f6:	2a02      	cmp	r2, #2
  f8:	bf0c      	ite	eq
  fa:	463b      	moveq	r3, r7
  fc:	4643      	movne	r3, r8
  fe:	4649      	mov	r1, r9
 100:	4842      	ldr	r0, [pc, #264]	@ (20c <ArtNetParams::Dump()+0x20c>)
 102:	3502      	adds	r5, #2
 104:	f7ff fffe 	bl	0 <printf>
 108:	2d08      	cmp	r5, #8
 10a:	f109 0912 	add.w	r9, r9, #18
 10e:	d1ec      	bne.n	ea <ArtNetParams::Dump()+0xea>
 110:	4e3f      	ldr	r6, [pc, #252]	@ (210 <ArtNetParams::Dump()+0x210>)
 112:	4f40      	ldr	r7, [pc, #256]	@ (214 <ArtNetParams::Dump()+0x214>)
 114:	2500      	movs	r5, #0
 116:	f105 0328 	add.w	r3, r5, #40	@ 0x28
 11a:	4631      	mov	r1, r6
 11c:	f854 2023 	ldr.w	r2, [r4, r3, lsl #2]
 120:	0e13      	lsrs	r3, r2, #24
 122:	9301      	str	r3, [sp, #4]
 124:	f3c2 4307 	ubfx	r3, r2, #16, #8
 128:	9300      	str	r3, [sp, #0]
 12a:	4638      	mov	r0, r7
 12c:	f3c2 2307 	ubfx	r3, r2, #8, #8
 130:	3501      	adds	r5, #1
 132:	b2d2      	uxtb	r2, r2
 134:	f7ff fffe 	bl	0 <printf>
 138:	2d04      	cmp	r5, #4
 13a:	f106 0618 	add.w	r6, r6, #24
 13e:	d1ea      	bne.n	116 <ArtNetParams::Dump()+0x116>
 140:	f8df 90f8 	ldr.w	r9, [pc, #248]	@ 23c <ArtNetParams::Dump()+0x23c>
 144:	f8df 80f8 	ldr.w	r8, [pc, #248]	@ 240 <ArtNetParams::Dump()+0x240>
 148:	4f33      	ldr	r7, [pc, #204]	@ (218 <ArtNetParams::Dump()+0x218>)
 14a:	4e30      	ldr	r6, [pc, #192]	@ (20c <ArtNetParams::Dump()+0x20c>)
 14c:	2500      	movs	r5, #0
 14e:	7c61      	ldrb	r1, [r4, #17]
 150:	2301      	movs	r3, #1
 152:	40ab      	lsls	r3, r5
 154:	b2da      	uxtb	r2, r3
 156:	400b      	ands	r3, r1
 158:	429a      	cmp	r2, r3
 15a:	bf0b      	itete	eq
 15c:	4643      	moveq	r3, r8
 15e:	463b      	movne	r3, r7
 160:	2201      	moveq	r2, #1
 162:	2200      	movne	r2, #0
 164:	4649      	mov	r1, r9
 166:	4630      	mov	r0, r6
 168:	3501      	adds	r5, #1
 16a:	f7ff fffe 	bl	0 <printf>
 16e:	2d04      	cmp	r5, #4
 170:	f109 0910 	add.w	r9, r9, #16
 174:	d1eb      	bne.n	14e <ArtNetParams::Dump()+0x14e>
 176:	4929      	ldr	r1, [pc, #164]	@ (21c <ArtNetParams::Dump()+0x21c>)
 178:	481b      	ldr	r0, [pc, #108]	@ (1e8 <ArtNetParams::Dump()+0x1e8>)
 17a:	4e29      	ldr	r6, [pc, #164]	@ (220 <ArtNetParams::Dump()+0x220>)
 17c:	4f29      	ldr	r7, [pc, #164]	@ (224 <ArtNetParams::Dump()+0x224>)
 17e:	f7ff fffe 	bl	0 <printf>
 182:	f104 05af 	add.w	r5, r4, #175	@ 0xaf
 186:	34b3      	adds	r4, #179	@ 0xb3
 188:	f815 2f01 	ldrb.w	r2, [r5, #1]!
 18c:	4631      	mov	r1, r6
 18e:	4638      	mov	r0, r7
 190:	f7ff fffe 	bl	0 <printf>
 194:	42ac      	cmp	r4, r5
 196:	f106 0610 	add.w	r6, r6, #16
 19a:	d1f5      	bne.n	188 <ArtNetParams::Dump()+0x188>
 19c:	4922      	ldr	r1, [pc, #136]	@ (228 <ArtNetParams::Dump()+0x228>)
 19e:	4812      	ldr	r0, [pc, #72]	@ (1e8 <ArtNetParams::Dump()+0x1e8>)
 1a0:	b003      	add	sp, #12
 1a2:	e8bd 43f0 	ldmia.w	sp!, {r4, r5, r6, r7, r8, r9, lr}
 1a6:	f7ff bffe 	b.w	0 <printf>
 1aa:	4633      	mov	r3, r6
 1ac:	e7a7      	b.n	fe <ArtNetParams::Dump()+0xfe>
 1ae:	bf00      	nop
 1b0:	0000000c 	.word	0x0000000c
 1b4:	00000000 	.word	0x00000000
 1b8:	00000011 	.word	0x00000011
 1bc:	0000002b 	.word	0x0000002b
 1c0:	00000014 	.word	0x00000014
 1c4:	00000008 	.word	0x00000008
 1c8:	00000000 	.word	0x00000000
 1cc:	00000039 	.word	0x00000039
 1d0:	00000000 	.word	0x00000000
 1d4:	00000046 	.word	0x00000046
	...
 1e0:	0000005b 	.word	0x0000005b
 1e4:	00000000 	.word	0x00000000
 1e8:	0000004e 	.word	0x0000004e
	...
 1f4:	00000022 	.word	0x00000022
 1f8:	0000001d 	.word	0x0000001d
 1fc:	0000000d 	.word	0x0000000d
 200:	00000011 	.word	0x00000011
 204:	00000000 	.word	0x00000000
 208:	0000000d 	.word	0x0000000d
 20c:	00000063 	.word	0x00000063
 210:	00000000 	.word	0x00000000
 214:	00000070 	.word	0x00000070
 218:	00000006 	.word	0x00000006
	...
 224:	00000081 	.word	0x00000081
 228:	00000000 	.word	0x00000000
 22c:	00000015 	.word	0x00000015
 230:	00000019 	.word	0x00000019
 234:	00000000 	.word	0x00000000
 238:	00000006 	.word	0x00000006
	...

artnetparamsconst.o:     file format elf32-littlearm


artnettrigger.o:     file format elf32-littlearm


Disassembly of section .text._ZN10ArtNetNode13HandleTriggerEv:

00000000 <ArtNetNode::HandleTrigger()>:
   0:	b410      	push	{r4}
   2:	f8d0 1bc8 	ldr.w	r1, [r0, #3016]	@ 0xbc8
   6:	7b8a      	ldrb	r2, [r1, #14]
   8:	2aff      	cmp	r2, #255	@ 0xff
   a:	d102      	bne.n	12 <ArtNetNode::HandleTrigger()+0x12>
   c:	7bcb      	ldrb	r3, [r1, #15]
   e:	2bff      	cmp	r3, #255	@ 0xff
  10:	d007      	beq.n	22 <ArtNetNode::HandleTrigger()+0x22>
  12:	4b09      	ldr	r3, [pc, #36]	@ (38 <ArtNetNode::HandleTrigger()+0x38>)
  14:	781c      	ldrb	r4, [r3, #0]
  16:	4294      	cmp	r4, r2
  18:	d10b      	bne.n	32 <ArtNetNode::HandleTrigger()+0x32>
  1a:	7bca      	ldrb	r2, [r1, #15]
  1c:	785b      	ldrb	r3, [r3, #1]
  1e:	429a      	cmp	r2, r3
  20:	d107      	bne.n	32 <ArtNetNode::HandleTrigger()+0x32>
  22:	f8d0 0be4 	ldr.w	r0, [r0, #3044]	@ 0xbe4
  26:	f85d 4b04 	ldr.w	r4, [sp], #4
  2a:	6803      	ldr	r3, [r0, #0]
  2c:	3110      	adds	r1, #16
  2e:	689b      	ldr	r3, [r3, #8]
  30:	4718      	bx	r3
  32:	f85d 4b04 	ldr.w	r4, [sp], #4
  36:	4770      	bx	lr
  38:	00000000 	.word	0x00000000

artnetnode.o:     file format elf32-littlearm


Disassembly of section .text._ZN11ArtNetStore16SavePortProtocolEmN6artnet12PortProtocolE:

00000000 <ArtNetStore::SavePortProtocol(unsigned long, artnet::PortProtocol)>:
   0:	e92d 41f0 	stmdb	sp!, {r4, r5, r6, r7, r8, lr}
   4:	4b18      	ldr	r3, [pc, #96]	@ (68 <ArtNetStore::SavePortProtocol(unsigned long, artnet::PortProtocol)+0x68>)
   6:	681c      	ldr	r4, [r3, #0]
   8:	4284      	cmp	r4, r0
   a:	b086      	sub	sp, #24
   c:	460d      	mov	r5, r1
   e:	d827      	bhi.n	60 <ArtNetStore::SavePortProtocol(unsigned long, artnet::PortProtocol)+0x60>
  10:	1b04      	subs	r4, r0, r4
  12:	2c03      	cmp	r4, #3
  14:	d824      	bhi.n	60 <ArtNetStore::SavePortProtocol(unsigned long, artnet::PortProtocol)+0x60>
  16:	f04f 089c 	mov.w	r8, #156	@ 0x9c
  1a:	2600      	movs	r6, #0
  1c:	e9cd 8600 	strd	r8, r6, [sp]
  20:	4f12      	ldr	r7, [pc, #72]	@ (6c <ArtNetStore::SavePortProtocol(unsigned long, artnet::PortProtocol)+0x6c>)
  22:	2302      	movs	r3, #2
  24:	6838      	ldr	r0, [r7, #0]
  26:	f10d 0216 	add.w	r2, sp, #22
  2a:	2119      	movs	r1, #25
  2c:	f7ff fffe 	bl	0 <ConfigStore::Copy(configstore::Store, void*, unsigned long, unsigned long, bool)>
  30:	0064      	lsls	r4, r4, #1
  32:	f8bd 3016 	ldrh.w	r3, [sp, #22]
  36:	2203      	movs	r2, #3
  38:	40a2      	lsls	r2, r4
  3a:	f005 0503 	and.w	r5, r5, #3
  3e:	ea23 0302 	bic.w	r3, r3, r2
  42:	40a5      	lsls	r5, r4
  44:	432b      	orrs	r3, r5
  46:	e9cd 6601 	strd	r6, r6, [sp, #4]
  4a:	f8ad 3016 	strh.w	r3, [sp, #22]
  4e:	2302      	movs	r3, #2
  50:	9300      	str	r3, [sp, #0]
  52:	6838      	ldr	r0, [r7, #0]
  54:	f10d 0316 	add.w	r3, sp, #22
  58:	4642      	mov	r2, r8
  5a:	2119      	movs	r1, #25
  5c:	f7ff fffe 	bl	0 <ConfigStore::Update(configstore::Store, unsigned long, void const*, unsigned long, unsigned long, unsigned long)>
  60:	b006      	add	sp, #24
  62:	e8bd 81f0 	ldmia.w	sp!, {r4, r5, r6, r7, r8, pc}
  66:	bf00      	nop
	...

Disassembly of section .text._ZN10ArtNetNode16SetPortProtocol4EmN6artnet12PortProtocolE:

00000000 <ArtNetNode::SetPortProtocol4(unsigned long, artnet::PortProtocol)>:
   0:	291f      	cmp	r1, #31
   2:	b538      	push	{r3, r4, r5, lr}
   4:	460c      	mov	r4, r1
   6:	4615      	mov	r5, r2
   8:	d826      	bhi.n	58 <ArtNetNode::SetPortProtocol4(unsigned long, artnet::PortProtocol)+0x58>
   a:	2328      	movs	r3, #40	@ 0x28
   c:	fb03 0301 	mla	r3, r3, r1, r0
  10:	2d01      	cmp	r5, #1
  12:	f8c3 2bf4 	str.w	r2, [r3, #3060]	@ 0xbf4
  16:	f04f 0224 	mov.w	r2, #36	@ 0x24
  1a:	fb02 0101 	mla	r1, r2, r1, r0
  1e:	f241 1370 	movw	r3, #4464	@ 0x1170
  22:	fb02 0204 	mla	r2, r2, r4, r0
  26:	5ccb      	ldrb	r3, [r1, r3]
  28:	f241 1170 	movw	r1, #4464	@ 0x1170
  2c:	bf0c      	ite	eq
  2e:	f043 0301 	orreq.w	r3, r3, #1
  32:	f003 03fe 	andne.w	r3, r3, #254	@ 0xfe
  36:	5453      	strb	r3, [r2, r1]
  38:	f500 5080 	add.w	r0, r0, #4096	@ 0x1000
  3c:	f890 3139 	ldrb.w	r3, [r0, #313]	@ 0x139
  40:	2b02      	cmp	r3, #2
  42:	d109      	bne.n	58 <ArtNetNode::SetPortProtocol4(unsigned long, artnet::PortProtocol)+0x58>
  44:	4629      	mov	r1, r5
  46:	4620      	mov	r0, r4
  48:	f7ff fffe 	bl	0 <ArtNetNode::SetPortProtocol4(unsigned long, artnet::PortProtocol)>
  4c:	4629      	mov	r1, r5
  4e:	4620      	mov	r0, r4
  50:	e8bd 4038 	ldmia.w	sp!, {r3, r4, r5, lr}
  54:	f7ff bffe 	b.w	0 <artnet::display_port_protocol(unsigned long, artnet::PortProtocol)>
  58:	bd38      	pop	{r3, r4, r5, pc}

Disassembly of section .text._ZN10ArtNetNode12SetUniverse4EmN8lightset7PortDirE:

00000000 <ArtNetNode::SetUniverse4(unsigned long, lightset::PortDir)>:
   0:	2a02      	cmp	r2, #2
   2:	b430      	push	{r4, r5}
   4:	d01c      	beq.n	40 <ArtNetNode::SetUniverse4(unsigned long, lightset::PortDir)+0x40>
   6:	2428      	movs	r4, #40	@ 0x28
   8:	fb04 0401 	mla	r4, r4, r1, r0
   c:	f8b4 3be8 	ldrh.w	r3, [r4, #3048]	@ 0xbe8
  10:	f8d4 4bf0 	ldr.w	r4, [r4, #3056]	@ 0xbf0
  14:	1aa5      	subs	r5, r4, r2
  16:	426c      	negs	r4, r5
  18:	416c      	adcs	r4, r5
  1a:	2528      	movs	r5, #40	@ 0x28
  1c:	fb05 0501 	mla	r5, r5, r1, r0
  20:	f8d5 5bf4 	ldr.w	r5, [r5, #3060]	@ 0xbf4
  24:	2d01      	cmp	r5, #1
  26:	d117      	bne.n	58 <ArtNetNode::SetUniverse4(unsigned long, lightset::PortDir)+0x58>
  28:	b96c      	cbnz	r4, 46 <ArtNetNode::SetUniverse4(unsigned long, lightset::PortDir)+0x46>
  2a:	230c      	movs	r3, #12
  2c:	fb03 0301 	mla	r3, r3, r1, r0
  30:	6b5a      	ldr	r2, [r3, #52]	@ 0x34
  32:	2a01      	cmp	r2, #1
  34:	d810      	bhi.n	58 <ArtNetNode::SetUniverse4(unsigned long, lightset::PortDir)+0x58>
  36:	8e1b      	ldrh	r3, [r3, #48]	@ 0x30
  38:	2202      	movs	r2, #2
  3a:	bc30      	pop	{r4, r5}
  3c:	f7ff bffe 	b.w	0 <E131Bridge::SetUniverse(unsigned long, lightset::PortDir, unsigned short)>
  40:	2300      	movs	r3, #0
  42:	461c      	mov	r4, r3
  44:	e7e9      	b.n	1a <ArtNetNode::SetUniverse4(unsigned long, lightset::PortDir)+0x1a>
  46:	f500 5480 	add.w	r4, r0, #4096	@ 0x1000
  4a:	f894 40ec 	ldrb.w	r4, [r4, #236]	@ 0xec
  4e:	b10c      	cbz	r4, 54 <ArtNetNode::SetUniverse4(unsigned long, lightset::PortDir)+0x54>
  50:	3301      	adds	r3, #1
  52:	b29b      	uxth	r3, r3
  54:	2b00      	cmp	r3, #0
  56:	d1f0      	bne.n	3a <ArtNetNode::SetUniverse4(unsigned long, lightset::PortDir)+0x3a>
  58:	bc30      	pop	{r4, r5}
  5a:	4770      	bx	lr

Disassembly of section .text._ZN10ArtNetNode16SetLedBlinkMode4EN8hardware8ledblink4ModeE:

00000000 <ArtNetNode::SetLedBlinkMode4(hardware::ledblink::Mode)>:
   0:	4b0b      	ldr	r3, [pc, #44]	@ (30 <ArtNetNode::SetLedBlinkMode4(hardware::ledblink::Mode)+0x30>)
   2:	681a      	ldr	r2, [r3, #0]
   4:	428a      	cmp	r2, r1
   6:	f1a1 0202 	sub.w	r2, r1, #2
   a:	bf18      	it	ne
   c:	6019      	strne	r1, [r3, #0]
   e:	4253      	negs	r3, r2
  10:	4153      	adcs	r3, r2
  12:	f880 3bb0 	strb.w	r3, [r0, #2992]	@ 0xbb0
  16:	f500 6308 	add.w	r3, r0, #2176	@ 0x880
  1a:	f890 21f1 	ldrb.w	r2, [r0, #497]	@ 0x1f1
  1e:	b932      	cbnz	r2, 2e <ArtNetNode::SetLedBlinkMode4(hardware::ledblink::Mode)+0x2e>
  20:	3044      	adds	r0, #68	@ 0x44
  22:	4298      	cmp	r0, r3
  24:	d1f9      	bne.n	1a <ArtNetNode::SetLedBlinkMode4(hardware::ledblink::Mode)+0x1a>
  26:	4b03      	ldr	r3, [pc, #12]	@ (34 <ArtNetNode::SetLedBlinkMode4(hardware::ledblink::Mode)+0x34>)
  28:	6818      	ldr	r0, [r3, #0]
  2a:	f7ff bffe 	b.w	0 <Hardware::SetMode(hardware::ledblink::Mode)>
  2e:	4770      	bx	lr
	...

Disassembly of section .text._ZN10ArtNetNode14GetGoodOutput4Em:

00000000 <ArtNetNode::GetGoodOutput4(unsigned long)>:
   0:	230c      	movs	r3, #12
   2:	fb03 0301 	mla	r3, r3, r1, r0
   6:	6b5b      	ldr	r3, [r3, #52]	@ 0x34
   8:	2b01      	cmp	r3, #1
   a:	d10d      	bne.n	28 <ArtNetNode::GetGoodOutput4(unsigned long)+0x28>
   c:	2344      	movs	r3, #68	@ 0x44
   e:	fb03 0001 	mla	r0, r3, r1, r0
  12:	f890 31f0 	ldrb.w	r3, [r0, #496]	@ 0x1f0
  16:	f890 01f1 	ldrb.w	r0, [r0, #497]	@ 0x1f1
  1a:	01c0      	lsls	r0, r0, #7
  1c:	ea40 00c3 	orr.w	r0, r0, r3, lsl #3
  20:	f040 0001 	orr.w	r0, r0, #1
  24:	b2c0      	uxtb	r0, r0
  26:	4770      	bx	lr
  28:	2000      	movs	r0, #0
  2a:	4770      	bx	lr
