In archive lib_gd32/libpp.a:

pp.o:     file format elf32-littlearm


Disassembly of section .text.memcpy.isra.0:

00000000 <memcpy.isra.0>:
   0:	440a      	add	r2, r1
   2:	4291      	cmp	r1, r2
   4:	d100      	bne.n	8 <memcpy.isra.0+0x8>
   6:	4770      	bx	lr
   8:	f811 3b01 	ldrb.w	r3, [r1], #1
   c:	f800 3b01 	strb.w	r3, [r0], #1
  10:	e7f7      	b.n	2 <memcpy.isra.0+0x2>

Disassembly of section .text._ZN11PixelPusherC2Ev:

00000000 <PixelPusher::PixelPusher()>:
   0:	b538      	push	{r3, r4, r5, lr}
   2:	4b1e      	ldr	r3, [pc, #120]	@ (7c <PixelPusher::PixelPusher()+0x7c>)
   4:	681b      	ldr	r3, [r3, #0]
   6:	6003      	str	r3, [r0, #0]
   8:	f04f 33ff 	mov.w	r3, #4294967295	@ 0xffffffff
   c:	e9c0 3301 	strd	r3, r3, [r0, #4]
  10:	4b1b      	ldr	r3, [pc, #108]	@ (80 <PixelPusher::PixelPusher()+0x80>)
  12:	2500      	movs	r5, #0
  14:	4604      	mov	r4, r0
  16:	f880 5024 	strb.w	r5, [r0, #36]	@ 0x24
  1a:	6285      	str	r5, [r0, #40]	@ 0x28
  1c:	f8c0 5080 	str.w	r5, [r0, #128]	@ 0x80
  20:	6018      	str	r0, [r3, #0]
  22:	e9c0 5503 	strd	r5, r5, [r0, #12]
  26:	e9c0 5505 	strd	r5, r5, [r0, #20]
  2a:	e9c0 5507 	strd	r5, r5, [r0, #28]
  2e:	302c      	adds	r0, #44	@ 0x2c
  30:	f104 0280 	add.w	r2, r4, #128	@ 0x80
  34:	4603      	mov	r3, r0
  36:	f803 5b01 	strb.w	r5, [r3], #1
  3a:	4293      	cmp	r3, r2
  3c:	d1fb      	bne.n	36 <PixelPusher::PixelPusher()+0x36>
  3e:	4911      	ldr	r1, [pc, #68]	@ (84 <PixelPusher::PixelPusher()+0x84>)
  40:	2206      	movs	r2, #6
  42:	f7ff fffe 	bl	0 <PixelPusher::PixelPusher()>
  46:	f44f 7381 	mov.w	r3, #258	@ 0x102
  4a:	86e3      	strh	r3, [r4, #54]	@ 0x36
  4c:	2303      	movs	r3, #3
  4e:	8723      	strh	r3, [r4, #56]	@ 0x38
  50:	2379      	movs	r3, #121	@ 0x79
  52:	87e3      	strh	r3, [r4, #62]	@ 0x3e
  54:	4b0c      	ldr	r3, [pc, #48]	@ (88 <PixelPusher::PixelPusher()+0x88>)
  56:	6423      	str	r3, [r4, #64]	@ 0x40
  58:	2301      	movs	r3, #1
  5a:	f44f 717a 	mov.w	r1, #1000	@ 0x3e8
  5e:	f241 32d6 	movw	r2, #5078	@ 0x13d6
  62:	f884 3045 	strb.w	r3, [r4, #69]	@ 0x45
  66:	e9c4 1312 	strd	r1, r3, [r4, #72]	@ 0x48
  6a:	f8a4 2060 	strh.w	r2, [r4, #96]	@ 0x60
  6e:	f8a4 3072 	strh.w	r3, [r4, #114]	@ 0x72
  72:	f8a4 5074 	strh.w	r5, [r4, #116]	@ 0x74
  76:	4620      	mov	r0, r4
  78:	bd38      	pop	{r3, r4, r5, pc}
  7a:	bf00      	nop
	...
  84:	00000014 	.word	0x00000014
  88:	00989680 	.word	0x00989680

Disassembly of section .text._ZN11PixelPusher5StartEv:

00000000 <PixelPusher::Start()>:
   0:	b510      	push	{r4, lr}
   2:	4604      	mov	r4, r0
   4:	f641 40a3 	movw	r0, #7331	@ 0x1ca3
   8:	f7ff fffe 	bl	0 <net::udp_begin(unsigned short)>
   c:	6060      	str	r0, [r4, #4]
   e:	f241 30d6 	movw	r0, #5078	@ 0x13d6
  12:	f7ff fffe 	bl	0 <net::udp_begin(unsigned short)>
  16:	6923      	ldr	r3, [r4, #16]
  18:	6a22      	ldr	r2, [r4, #32]
  1a:	f8a4 3046 	strh.w	r3, [r4, #70]	@ 0x46
  1e:	eb03 0343 	add.w	r3, r3, r3, lsl #1
  22:	f884 2044 	strb.w	r2, [r4, #68]	@ 0x44
  26:	f8a4 206c 	strh.w	r2, [r4, #108]	@ 0x6c
  2a:	3301      	adds	r3, #1
  2c:	2200      	movs	r2, #0
  2e:	60a0      	str	r0, [r4, #8]
  30:	f8a4 206e 	strh.w	r2, [r4, #110]	@ 0x6e
  34:	f8a4 2070 	strh.w	r2, [r4, #112]	@ 0x70
  38:	6163      	str	r3, [r4, #20]
  3a:	bd10      	pop	{r4, pc}

Disassembly of section .text._ZN11PixelPusher4StopEv:

00000000 <PixelPusher::Stop()>:
   0:	b538      	push	{r3, r4, r5, lr}
   2:	4604      	mov	r4, r0
   4:	f04f 35ff 	mov.w	r5, #4294967295	@ 0xffffffff
   8:	f241 30d6 	movw	r0, #5078	@ 0x13d6
   c:	f7ff fffe 	bl	0 <net::udp_end(unsigned short)>
  10:	60a5      	str	r5, [r4, #8]
  12:	f641 40a3 	movw	r0, #7331	@ 0x1ca3
  16:	f7ff fffe 	bl	0 <net::udp_end(unsigned short)>
  1a:	6065      	str	r5, [r4, #4]
  1c:	bd38      	pop	{r3, r4, r5, pc}

Disassembly of section .text._ZN11PixelPusher3RunEv:

00000000 <PixelPusher::Run()>:
   0:	e92d 4ff0 	stmdb	sp!, {r4, r5, r6, r7, r8, r9, sl, fp, lr}
   4:	b089      	sub	sp, #36	@ 0x24
   6:	4604      	mov	r4, r0
   8:	f100 0180 	add.w	r1, r0, #128	@ 0x80
   c:	f10d 0312 	add.w	r3, sp, #18
  10:	6880      	ldr	r0, [r0, #8]
  12:	aa05      	add	r2, sp, #20
  14:	f7ff fffe 	bl	0 <net::udp_recv2(int, unsigned char const**, unsigned long*, unsigned short*)>
  18:	2803      	cmp	r0, #3
  1a:	60e0      	str	r0, [r4, #12]
  1c:	d820      	bhi.n	60 <PixelPusher::Run()+0x60>
  1e:	4b51      	ldr	r3, [pc, #324]	@ (164 <PixelPusher::Run()+0x164>)
  20:	681a      	ldr	r2, [r3, #0]
  22:	6823      	ldr	r3, [r4, #0]
  24:	1ad3      	subs	r3, r2, r3
  26:	f5b3 7f7a 	cmp.w	r3, #1000	@ 0x3e8
  2a:	d316      	bcc.n	5a <PixelPusher::Run()+0x5a>
  2c:	4620      	mov	r0, r4
  2e:	4d4e      	ldr	r5, [pc, #312]	@ (168 <PixelPusher::Run()+0x168>)
  30:	f840 2b32 	str.w	r2, [r0], #50
  34:	a907      	add	r1, sp, #28
  36:	682b      	ldr	r3, [r5, #0]
  38:	9307      	str	r3, [sp, #28]
  3a:	2204      	movs	r2, #4
  3c:	f7ff fffe 	bl	0 <PixelPusher::Run()>
  40:	682b      	ldr	r3, [r5, #0]
  42:	6860      	ldr	r0, [r4, #4]
  44:	f104 012c 	add.w	r1, r4, #44	@ 0x2c
  48:	b13b      	cbz	r3, 5a <PixelPusher::Run()+0x5a>
  4a:	f641 43a3 	movw	r3, #7331	@ 0x1ca3
  4e:	9300      	str	r3, [sp, #0]
  50:	2254      	movs	r2, #84	@ 0x54
  52:	f04f 33ff 	mov.w	r3, #4294967295	@ 0xffffffff
  56:	f7ff fffe 	bl	0 <net::udp_send(int, unsigned char const*, unsigned long, unsigned long, unsigned short)>
  5a:	b009      	add	sp, #36	@ 0x24
  5c:	e8bd 8ff0 	ldmia.w	sp!, {r4, r5, r6, r7, r8, r9, sl, fp, pc}
  60:	f8d4 6080 	ldr.w	r6, [r4, #128]	@ 0x80
  64:	2204      	movs	r2, #4
  66:	4631      	mov	r1, r6
  68:	a806      	add	r0, sp, #24
  6a:	f7ff fffe 	bl	0 <PixelPusher::Run()>
  6e:	68e5      	ldr	r5, [r4, #12]
  70:	3d04      	subs	r5, #4
  72:	2d0f      	cmp	r5, #15
  74:	60e5      	str	r5, [r4, #12]
  76:	d90c      	bls.n	92 <PixelPusher::Run()+0x92>
  78:	4a3c      	ldr	r2, [pc, #240]	@ (16c <PixelPusher::Run()+0x16c>)
  7a:	1cf3      	adds	r3, r6, #3
  7c:	f106 0113 	add.w	r1, r6, #19
  80:	f813 7f01 	ldrb.w	r7, [r3, #1]!
  84:	f812 0b01 	ldrb.w	r0, [r2], #1
  88:	4287      	cmp	r7, r0
  8a:	d102      	bne.n	92 <PixelPusher::Run()+0x92>
  8c:	428b      	cmp	r3, r1
  8e:	d1f7      	bne.n	80 <PixelPusher::Run()+0x80>
  90:	e7e3      	b.n	5a <PixelPusher::Run()+0x5a>
  92:	6963      	ldr	r3, [r4, #20]
  94:	fbb5 f8f3 	udiv	r8, r5, r3
  98:	fb03 5518 	mls	r5, r3, r8, r5
  9c:	2d00      	cmp	r5, #0
  9e:	d1dc      	bne.n	5a <PixelPusher::Run()+0x5a>
  a0:	3604      	adds	r6, #4
  a2:	4545      	cmp	r5, r8
  a4:	d0d9      	beq.n	5a <PixelPusher::Run()+0x5a>
  a6:	69a3      	ldr	r3, [r4, #24]
  a8:	f896 9000 	ldrb.w	r9, [r6]
  ac:	fb03 f909 	mul.w	r9, r3, r9
  b0:	4b2f      	ldr	r3, [pc, #188]	@ (170 <PixelPusher::Run()+0x170>)
  b2:	f240 6704 	movw	r7, #1540	@ 0x604
  b6:	fb07 3709 	mla	r7, r7, r9, r3
  ba:	46ca      	mov	sl, r9
  bc:	f104 030c 	add.w	r3, r4, #12
  c0:	69a2      	ldr	r2, [r4, #24]
  c2:	444a      	add	r2, r9
  c4:	4552      	cmp	r2, sl
  c6:	6962      	ldr	r2, [r4, #20]
  c8:	d901      	bls.n	ce <PixelPusher::Run()+0xce>
  ca:	68e1      	ldr	r1, [r4, #12]
  cc:	b979      	cbnz	r1, ee <PixelPusher::Run()+0xee>
  ce:	69e3      	ldr	r3, [r4, #28]
  d0:	4553      	cmp	r3, sl
  d2:	4416      	add	r6, r2
  d4:	d109      	bne.n	ea <PixelPusher::Run()+0xea>
  d6:	2100      	movs	r1, #0
  d8:	4a25      	ldr	r2, [pc, #148]	@ (170 <PixelPusher::Run()+0x170>)
  da:	f04f 0901 	mov.w	r9, #1
  de:	468a      	mov	sl, r1
  e0:	69e3      	ldr	r3, [r4, #28]
  e2:	428b      	cmp	r3, r1
  e4:	f202 6704 	addw	r7, r2, #1540	@ 0x604
  e8:	d829      	bhi.n	13e <PixelPusher::Run()+0x13e>
  ea:	3501      	adds	r5, #1
  ec:	e7d9      	b.n	a2 <PixelPusher::Run()+0xa2>
  ee:	f5b1 7fff 	cmp.w	r1, #510	@ 0x1fe
  f2:	4920      	ldr	r1, [pc, #128]	@ (174 <PixelPusher::Run()+0x174>)
  f4:	9303      	str	r3, [sp, #12]
  f6:	bf38      	it	cc
  f8:	4619      	movcc	r1, r3
  fa:	3a01      	subs	r2, #1
  fc:	6808      	ldr	r0, [r1, #0]
  fe:	9207      	str	r2, [sp, #28]
 100:	4282      	cmp	r2, r0
 102:	ab07      	add	r3, sp, #28
 104:	bf98      	it	ls
 106:	4619      	movls	r1, r3
 108:	4638      	mov	r0, r7
 10a:	f8d1 b000 	ldr.w	fp, [r1]
 10e:	1c71      	adds	r1, r6, #1
 110:	465a      	mov	r2, fp
 112:	9102      	str	r1, [sp, #8]
 114:	f7ff fffe 	bl	0 <PixelPusher::Run()>
 118:	9902      	ldr	r1, [sp, #8]
 11a:	f8c7 b600 	str.w	fp, [r7, #1536]	@ 0x600
 11e:	f507 6080 	add.w	r0, r7, #1024	@ 0x400
 122:	465a      	mov	r2, fp
 124:	f7ff fffe 	bl	0 <PixelPusher::Run()>
 128:	68e1      	ldr	r1, [r4, #12]
 12a:	9b03      	ldr	r3, [sp, #12]
 12c:	eba1 010b 	sub.w	r1, r1, fp
 130:	60e1      	str	r1, [r4, #12]
 132:	445e      	add	r6, fp
 134:	f10a 0a01 	add.w	sl, sl, #1
 138:	f207 6704 	addw	r7, r7, #1540	@ 0x604
 13c:	e7c0      	b.n	c0 <PixelPusher::Run()+0xc0>
 13e:	6aa0      	ldr	r0, [r4, #40]	@ 0x28
 140:	9102      	str	r1, [sp, #8]
 142:	6803      	ldr	r3, [r0, #0]
 144:	f8cd 9000 	str.w	r9, [sp]
 148:	f8d3 b010 	ldr.w	fp, [r3, #16]
 14c:	f857 3c04 	ldr.w	r3, [r7, #-4]
 150:	f502 6280 	add.w	r2, r2, #1024	@ 0x400
 154:	47d8      	blx	fp
 156:	9902      	ldr	r1, [sp, #8]
 158:	f847 ac04 	str.w	sl, [r7, #-4]
 15c:	3101      	adds	r1, #1
 15e:	463a      	mov	r2, r7
 160:	e7be      	b.n	e0 <PixelPusher::Run()+0xe0>
 162:	bf00      	nop
	...

Disassembly of section .text._ZN11PixelPusher19HandlePusherCommandEPKhm:

00000000 <PixelPusher::HandlePusherCommand(unsigned char const*, unsigned long)>:
   0:	4770      	bx	lr

Disassembly of section .text._ZN11PixelPusher5PrintEv:

00000000 <PixelPusher::Print()>:
   0:	b510      	push	{r4, lr}
   2:	4604      	mov	r4, r0
   4:	4808      	ldr	r0, [pc, #32]	@ (28 <PixelPusher::Print()+0x28>)
   6:	f7ff fffe 	bl	0 <puts>
   a:	6921      	ldr	r1, [r4, #16]
   c:	4807      	ldr	r0, [pc, #28]	@ (2c <PixelPusher::Print()+0x2c>)
   e:	f7ff fffe 	bl	0 <printf>
  12:	2103      	movs	r1, #3
  14:	4806      	ldr	r0, [pc, #24]	@ (30 <PixelPusher::Print()+0x30>)
  16:	f7ff fffe 	bl	0 <printf>
  1a:	6a21      	ldr	r1, [r4, #32]
  1c:	4805      	ldr	r0, [pc, #20]	@ (34 <PixelPusher::Print()+0x34>)
  1e:	e8bd 4010 	ldmia.w	sp!, {r4, lr}
  22:	f7ff bffe 	b.w	0 <printf>
  26:	bf00      	nop
  28:	00000000 	.word	0x00000000
  2c:	0000000c 	.word	0x0000000c
  30:	00000025 	.word	0x00000025
  34:	0000003e 	.word	0x0000003e
